Archive member included because of file (symbol)

../lpc2106_install/lib/libtarget.a(hal_common_hal_if.o)
                              ../lpc2106_install/lib/extras.o (hal_if_diag_read_char)
../lpc2106_install/lib/libtarget.a(hal_common_hal_misc.o)
                              ../lpc2106_install/lib/libtarget.a(hal_common_hal_if.o) (cyg_hal_is_break)
../lpc2106_install/lib/libtarget.a(io_common_iosys.o)
                              ../lpc2106_install/lib/extras.o (cyg_io_init)
../lpc2106_install/lib/libtarget.a(infra_startup.o)
                              ../lpc2106_install/lib/vectors.o (cyg_start)
../lpc2106_install/lib/libtarget.a(infra_prestart.o)
                              ../lpc2106_install/lib/libtarget.a(infra_startup.o) (cyg_prestart)
../lpc2106_install/lib/libtarget.a(infra_pkgstart.o)
                              ../lpc2106_install/lib/libtarget.a(infra_startup.o) (cyg_package_start)
../lpc2106_install/lib/libtarget.a(infra_userstart.o)
                              ../lpc2106_install/lib/libtarget.a(infra_startup.o) (cyg_user_start)
../lpc2106_install/lib/libtarget.a(infra_diag.o)
                              ../lpc2106_install/lib/extras.o (diag_printf)
../lpc2106_install/lib/libtarget.a(kernel_kapi.o)
                              ../lpc2106_install/lib/extras.o (cyg_scheduler_lock)
../lpc2106_install/lib/libtarget.a(kernel_thread.o)
                              ../lpc2106_install/lib/libtarget.a(kernel_kapi.o) (_ZN10Cyg_Thread17deliver_exceptionEij)
../lpc2106_install/lib/libtarget.a(kernel_except.o)
                              ../lpc2106_install/lib/libtarget.a(kernel_kapi.o) (_ZN21Cyg_Exception_Control18register_exceptionEiPFvjijEjPS1_Pj)
../lpc2106_install/lib/libtarget.a(kernel_intr.o)
                              ../lpc2106_install/lib/libtarget.a(kernel_kapi.o) (_ZN13Cyg_InterruptC1EjijPFjjjEPFvjjjE)
../lpc2106_install/lib/libtarget.a(kernel_mlqueue.o)
                              ../lpc2106_install/lib/libtarget.a(kernel_thread.o) (_ZN28Cyg_Scheduler_Implementation10rem_threadEP10Cyg_Thread)
../lpc2106_install/lib/libtarget.a(kernel_sched.o)
                              ../lpc2106_install/lib/libtarget.a(kernel_thread.o) (_ZN13Cyg_Scheduler9schedulerE)
../lpc2106_install/lib/libtarget.a(kernel_cnt_sem.o)
                              ../lpc2106_install/lib/libtarget.a(kernel_kapi.o) (_ZN22Cyg_Counting_SemaphoreC1Ei)
../lpc2106_install/lib/libtarget.a(kernel_flag.o)
                              ../lpc2106_install/lib/libtarget.a(kernel_kapi.o) (_ZN8Cyg_FlagC1Ej)
../lpc2106_install/lib/libtarget.a(kernel_mbox.o)
                              ../lpc2106_install/lib/libtarget.a(kernel_kapi.o) (_ZN8Cyg_MboxC1Ev)
../lpc2106_install/lib/libtarget.a(kernel_mutex.o)
                              ../lpc2106_install/lib/libtarget.a(kernel_kapi.o) (_ZN9Cyg_MutexC1Ev)
../lpc2106_install/lib/libtarget.a(language_c_libc_startup_mainthread.o)
                              ../lpc2106_install/lib/extras.o (cyg_libc_main_thread)
../lpc2106_install/lib/libtarget.a(language_c_libc_stdio_stdioinlines.o)
                              /tmp/cckwxeNr.o (puts)
../lpc2106_install/lib/libtarget.a(language_c_libc_stdio_stdout.o)
                              ../lpc2106_install/lib/libtarget.a(language_c_libc_stdio_stdioinlines.o) (stdout)
../lpc2106_install/lib/libtarget.a(language_c_libc_stdio_stream.o)
                              ../lpc2106_install/lib/libtarget.a(language_c_libc_stdio_stdout.o) (_ZTV16Cyg_OutputStream)
../lpc2106_install/lib/libtarget.a(language_c_libc_stdio_streambuf.o)
                              ../lpc2106_install/lib/libtarget.a(language_c_libc_stdio_stream.o) (_ZN21Cyg_StdioStreamBuffer10set_bufferEjPh)
../lpc2106_install/lib/libtarget.a(language_c_libc_stdio_vsnprintf.o)
                              ../lpc2106_install/lib/libtarget.a(language_c_libc_stdio_stdioinlines.o) (vsnprintf)
../lpc2106_install/lib/libtarget.a(language_c_libc_stdio_vfscanf.o)
                              ../lpc2106_install/lib/libtarget.a(language_c_libc_stdio_stdioinlines.o) (vfscanf)
../lpc2106_install/lib/libtarget.a(language_c_libc_stdio_fprintf.o)
                              ../lpc2106_install/lib/libtarget.a(language_c_libc_stdio_stdioinlines.o) (fprintf)
../lpc2106_install/lib/libtarget.a(language_c_libc_stdio_fputc.o)
                              ../lpc2106_install/lib/libtarget.a(language_c_libc_stdio_stdioinlines.o) (fputc)
../lpc2106_install/lib/libtarget.a(language_c_libc_stdio_fputs.o)
                              ../lpc2106_install/lib/libtarget.a(language_c_libc_stdio_stdioinlines.o) (fputs)
../lpc2106_install/lib/libtarget.a(language_c_libc_stdio_vfnprintf.o)
                              ../lpc2106_install/lib/libtarget.a(language_c_libc_stdio_stdioinlines.o) (vfnprintf)
../lpc2106_install/lib/libtarget.a(language_c_libc_stdlib_strtod.o)
                              ../lpc2106_install/lib/libtarget.a(language_c_libc_stdio_vfscanf.o) (strtod)
../lpc2106_install/lib/libtarget.a(language_c_libc_stdlib_strtol.o)
                              ../lpc2106_install/lib/libtarget.a(language_c_libc_stdio_vfscanf.o) (strtol)
../lpc2106_install/lib/libtarget.a(language_c_libc_stdlib_strtoul.o)
                              ../lpc2106_install/lib/libtarget.a(language_c_libc_stdio_vfscanf.o) (strtoul)
../lpc2106_install/lib/libtarget.a(language_c_libc_stdlib_strtoll.o)
                              ../lpc2106_install/lib/libtarget.a(language_c_libc_stdio_vfscanf.o) (strtoll)
../lpc2106_install/lib/libtarget.a(language_c_libc_stdlib_strtoull.o)
                              ../lpc2106_install/lib/libtarget.a(language_c_libc_stdio_vfscanf.o) (strtoull)
../lpc2106_install/lib/libtarget.a(language_c_libc_string_memchr.o)
                              ../lpc2106_install/lib/libtarget.a(language_c_libc_stdio_vfnprintf.o) (memchr)
../lpc2106_install/lib/libtarget.a(language_c_libc_string_strlen.o)
                              ../lpc2106_install/lib/libtarget.a(language_c_libc_stdio_fputs.o) (strlen)
../lpc2106_install/lib/libtarget.a(language_c_libc_string_strsuppt.o)
                              ../lpc2106_install/lib/libtarget.a(language_c_libc_string_memchr.o) (Cyg_libc_str_null_mask_1)
../lpc2106_install/lib/libtarget.a(language_c_libm_infconst.o)
                              ../lpc2106_install/lib/libtarget.a(language_c_libc_stdlib_strtod.o) (cyg_libm_infinity)
../lpc2106_install/lib/libtarget.a(language_c_libm_s_modf.o)
                              ../lpc2106_install/lib/libtarget.a(language_c_libc_stdio_vfnprintf.o) (modf)
../lpc2106_install/lib/libtarget.a(error_strerror.o)
                              ../lpc2106_install/lib/libtarget.a(language_c_libc_stdio_stdioinlines.o) (strerror)
../lpc2106_install/lib/libtarget.a(error_errno.o)
                              ../lpc2106_install/lib/libtarget.a(language_c_libc_stdio_stdioinlines.o) (cyg_error_get_errno_p)
../lpc2106_install/lib/libtarget.a(hal_arm_arch_hal_misc.o)
                              ../lpc2106_install/lib/vectors.o (hal_spurious_IRQ)
../lpc2106_install/lib/libtarget.a(hal_arm_arch_context.o)
                              ../lpc2106_install/lib/libtarget.a(kernel_sched.o) (hal_thread_switch_context)
../lpc2106_install/lib/libtarget.a(hal_arm_lpc2xxx_var_lpc2xxx_misc.o)
                              ../lpc2106_install/lib/libtarget.a(hal_common_hal_if.o) (hal_clock_read)
../lpc2106_install/lib/libtarget.a(hal_arm_lpc2xxx_p2106_p2106_misc.o)
                              ../lpc2106_install/lib/libtarget.a(hal_common_hal_if.o) (cyg_hal_plf_comms_init)
../lpc2106_install/lib/libtarget.a(infra_memcpy.o)
                              ../lpc2106_install/lib/libtarget.a(language_c_libc_stdio_stream.o) (memcpy)
../lpc2106_install/lib/libtarget.a(infra_delete.o)
                              ../lpc2106_install/lib/libtarget.a(language_c_libc_stdio_stream.o) (_ZdlPv)
../lpc2106_install/lib/libtarget.a(kernel_clock.o)
                              ../lpc2106_install/lib/libtarget.a(kernel_kapi.o) (_ZN11Cyg_CounterC1Ej)
../lpc2106_install/lib/libtarget.a(services_memalloc_common_malloc.o)
                              ../lpc2106_install/lib/libtarget.a(language_c_libc_stdio_stdout.o) (free)
../lpc2106_install/lib/libtarget.a(services_memalloc_common_heaps.o)
                              ../lpc2106_install/lib/libtarget.a(services_memalloc_common_malloc.o) (cygmem_memalloc_heaps)
../lpc2106_install/lib/libtarget.a(language_c_libc_startup_invokemain.o)
                              ../lpc2106_install/lib/libtarget.a(language_c_libc_startup_mainthread.o) (cyg_libc_invoke_main)
../lpc2106_install/lib/libtarget.a(language_c_libc_stdio_fflush.o)
                              ../lpc2106_install/lib/libtarget.a(language_c_libc_stdio_stream.o) (cyg_libc_stdio_flush_all_but)
../lpc2106_install/lib/libtarget.a(language_c_libc_stdio_setvbuf.o)
                              ../lpc2106_install/lib/libtarget.a(language_c_libc_stdio_stdioinlines.o) (setvbuf)
../lpc2106_install/lib/libtarget.a(language_c_libc_stdio_stderr.o)
                              ../lpc2106_install/lib/libtarget.a(language_c_libc_stdio_stdioinlines.o) (stderr)
../lpc2106_install/lib/libtarget.a(language_c_libc_stdio_stdin.o)
                              ../lpc2106_install/lib/libtarget.a(language_c_libc_stdio_stdioinlines.o) (stdin)
../lpc2106_install/lib/libtarget.a(language_c_libc_stdio_stdiofiles.o)
                              ../lpc2106_install/lib/libtarget.a(language_c_libc_stdio_fflush.o) (_ZN20Cyg_libc_stdio_files10files_lockE)
../lpc2106_install/lib/libtarget.a(language_c_libc_stdio_stdiosupp.o)
                              ../lpc2106_install/lib/libtarget.a(language_c_libc_stdio_stdout.o) (Cyg_libc_stdio_find_filename)
../lpc2106_install/lib/libtarget.a(language_c_libc_stdio_ungetc.o)
                              ../lpc2106_install/lib/libtarget.a(language_c_libc_stdio_vfscanf.o) (ungetc)
../lpc2106_install/lib/libtarget.a(hal_arm_lpc2xxx_var_hal_diag.o)
                              ../lpc2106_install/lib/libtarget.a(hal_arm_lpc2xxx_p2106_p2106_misc.o) (cyg_hal_plf_serial_init)
../lpc2106_install/lib/libtarget.a(infra_memset.o)
                              ../lpc2106_install/lib/libtarget.a(services_memalloc_common_malloc.o) (memset)
../lpc2106_install/lib/libtarget.a(services_memalloc_common_dlmalloc.o)
                              ../lpc2106_install/lib/libtarget.a(services_memalloc_common_heaps.o) (_ZN35Cyg_Mempool_dlmalloc_ImplementationC1EPhij)
../lpc2106_install/lib/libtarget.a(language_c_libc_startup_exit.o)
                              ../lpc2106_install/lib/libtarget.a(language_c_libc_startup_invokemain.o) (exit)
../lpc2106_install/lib/libtarget.a(language_c_libc_string_memmove.o)
                              ../lpc2106_install/lib/libtarget.a(services_memalloc_common_dlmalloc.o) (memmove)
../lpc2106_install/lib/libtarget.a(language_c_libc_startup__exit.o)
                              ../lpc2106_install/lib/libtarget.a(language_c_libc_startup_exit.o) (_exit)
../lpc2106_install/lib/libtarget.a(language_c_libc_startup_atexit.o)
                              ../lpc2106_install/lib/libtarget.a(language_c_libc_startup_exit.o) (cyg_libc_invoke_atexit_handlers)
/home/psampaio/Develop/ecos/gnutools/arm-eabi/bin/../lib/gcc/arm-eabi/4.3.2/libgcc.a(_udivsi3.o)
                              ../lpc2106_install/lib/libtarget.a(language_c_libc_stdlib_strtol.o) (__aeabi_uidiv)
/home/psampaio/Develop/ecos/gnutools/arm-eabi/bin/../lib/gcc/arm-eabi/4.3.2/libgcc.a(_divsi3.o)
                              ../lpc2106_install/lib/libtarget.a(hal_arm_lpc2xxx_var_hal_diag.o) (__aeabi_idiv)
/home/psampaio/Develop/ecos/gnutools/arm-eabi/bin/../lib/gcc/arm-eabi/4.3.2/libgcc.a(_dvmd_tls.o)
                              /home/psampaio/Develop/ecos/gnutools/arm-eabi/bin/../lib/gcc/arm-eabi/4.3.2/libgcc.a(_udivsi3.o) (__div0)
/home/psampaio/Develop/ecos/gnutools/arm-eabi/bin/../lib/gcc/arm-eabi/4.3.2/libgcc.a(_addsubdf3.o)
                              ../lpc2106_install/lib/libtarget.a(language_c_libm_s_modf.o) (__aeabi_dsub)
/home/psampaio/Develop/ecos/gnutools/arm-eabi/bin/../lib/gcc/arm-eabi/4.3.2/libgcc.a(_muldivdf3.o)
                              ../lpc2106_install/lib/libtarget.a(language_c_libc_stdio_vfnprintf.o) (__aeabi_dmul)
/home/psampaio/Develop/ecos/gnutools/arm-eabi/bin/../lib/gcc/arm-eabi/4.3.2/libgcc.a(_cmpdf2.o)
                              ../lpc2106_install/lib/libtarget.a(language_c_libc_stdio_vfnprintf.o) (__aeabi_dcmpeq)
/home/psampaio/Develop/ecos/gnutools/arm-eabi/bin/../lib/gcc/arm-eabi/4.3.2/libgcc.a(_unorddf2.o)
                              ../lpc2106_install/lib/libtarget.a(language_c_libc_stdio_vfnprintf.o) (__aeabi_dcmpun)
/home/psampaio/Develop/ecos/gnutools/arm-eabi/bin/../lib/gcc/arm-eabi/4.3.2/libgcc.a(_fixdfsi.o)
                              ../lpc2106_install/lib/libtarget.a(language_c_libc_stdio_vfnprintf.o) (__aeabi_d2iz)
/home/psampaio/Develop/ecos/gnutools/arm-eabi/bin/../lib/gcc/arm-eabi/4.3.2/libgcc.a(_truncdfsf2.o)
                              ../lpc2106_install/lib/libtarget.a(language_c_libc_stdio_vfscanf.o) (__aeabi_d2f)
/home/psampaio/Develop/ecos/gnutools/arm-eabi/bin/../lib/gcc/arm-eabi/4.3.2/libgcc.a(_aeabi_uldivmod.o)
                              ../lpc2106_install/lib/libtarget.a(infra_diag.o) (__aeabi_uldivmod)
/home/psampaio/Develop/ecos/gnutools/arm-eabi/bin/../lib/gcc/arm-eabi/4.3.2/libgcc.a(bpabi.o)
                              /home/psampaio/Develop/ecos/gnutools/arm-eabi/bin/../lib/gcc/arm-eabi/4.3.2/libgcc.a(_aeabi_uldivmod.o) (__gnu_uldivmod_helper)
/home/psampaio/Develop/ecos/gnutools/arm-eabi/bin/../lib/gcc/arm-eabi/4.3.2/libgcc.a(_divdi3.o)
                              /home/psampaio/Develop/ecos/gnutools/arm-eabi/bin/../lib/gcc/arm-eabi/4.3.2/libgcc.a(bpabi.o) (__divdi3)
/home/psampaio/Develop/ecos/gnutools/arm-eabi/bin/../lib/gcc/arm-eabi/4.3.2/libgcc.a(_udivdi3.o)
                              /home/psampaio/Develop/ecos/gnutools/arm-eabi/bin/../lib/gcc/arm-eabi/4.3.2/libgcc.a(bpabi.o) (__udivdi3)
/home/psampaio/Develop/ecos/gnutools/arm-eabi/bin/../lib/gcc/arm-eabi/4.3.2/libgcc.a(_clz.o)
                              /home/psampaio/Develop/ecos/gnutools/arm-eabi/bin/../lib/gcc/arm-eabi/4.3.2/libgcc.a(_divdi3.o) (__clz_tab)

Allocating common symbols
Common symbol       size              file

_cyg_hal_compiler_dummy
                    0x4               ../lpc2106_install/lib/libtarget.a(hal_common_hal_misc.o)

Discarded input sections

 .fini_array.11100
                0x00000000        0x0 ../lpc2106_install/lib/libtarget.a(kernel_thread.o)
 .fini_array.12000
                0x00000000        0x0 ../lpc2106_install/lib/libtarget.a(kernel_intr.o)
 .fini_array.11000
                0x00000000        0x0 ../lpc2106_install/lib/libtarget.a(kernel_sched.o)
 .fini_array.56000
                0x00000000        0x0 ../lpc2106_install/lib/libtarget.a(language_c_libc_startup_mainthread.o)
 .fini_array.56001
                0x00000000        0x0 ../lpc2106_install/lib/libtarget.a(language_c_libc_stdio_stdout.o)
 _ZN16Cyg_OutputStreamD1Ev
                0x00000000        0x0 ../lpc2106_install/lib/libtarget.a(language_c_libc_stdio_stream.o)
 _ZN16Cyg_OutputStreamD0Ev
                0x00000000        0x0 ../lpc2106_install/lib/libtarget.a(language_c_libc_stdio_stream.o)
 _ZN15Cyg_StdioStream9get_errorEv
                0x00000000        0x0 ../lpc2106_install/lib/libtarget.a(language_c_libc_stdio_stream.o)
 _ZN15Cyg_StdioStreamD0Ev
                0x00000000        0x0 ../lpc2106_install/lib/libtarget.a(language_c_libc_stdio_stream.o)
 _ZN15Cyg_StdioStreamD1Ev
                0x00000000        0x0 ../lpc2106_install/lib/libtarget.a(language_c_libc_stdio_stream.o)
 _ZN19Cyg_VsnprintfStreamD1Ev
                0x00000000        0x0 ../lpc2106_install/lib/libtarget.a(language_c_libc_stdio_vsnprintf.o)
 _ZN19Cyg_VsnprintfStream9get_errorEv
                0x00000000        0x0 ../lpc2106_install/lib/libtarget.a(language_c_libc_stdio_vsnprintf.o)
 _ZN19Cyg_VsnprintfStreamD0Ev
                0x00000000        0x0 ../lpc2106_install/lib/libtarget.a(language_c_libc_stdio_vsnprintf.o)
 _ZN15Cyg_StdioStream12set_positionEii
                0x00000000        0x0 ../lpc2106_install/lib/libtarget.a(language_c_libc_stdio_vfscanf.o)
 .fini_array.14000
                0x00000000        0x0 ../lpc2106_install/lib/libtarget.a(kernel_clock.o)
 .fini_array.19900
                0x00000000        0x0 ../lpc2106_install/lib/libtarget.a(services_memalloc_common_heaps.o)
 .fini_array.56002
                0x00000000        0x0 ../lpc2106_install/lib/libtarget.a(language_c_libc_stdio_stderr.o)
 .fini_array.56000
                0x00000000        0x0 ../lpc2106_install/lib/libtarget.a(language_c_libc_stdio_stdin.o)
 .fini_array.56000
                0x00000000        0x0 ../lpc2106_install/lib/libtarget.a(language_c_libc_stdio_stdiofiles.o)
 .ARM.extab     0x00000000        0x0 /home/psampaio/Develop/ecos/gnutools/arm-eabi/bin/../lib/gcc/arm-eabi/4.3.2/libgcc.a(_divdi3.o)
 .ARM.exidx     0x00000000        0x0 /home/psampaio/Develop/ecos/gnutools/arm-eabi/bin/../lib/gcc/arm-eabi/4.3.2/libgcc.a(_divdi3.o)
 .ARM.extab     0x00000000        0x0 /home/psampaio/Develop/ecos/gnutools/arm-eabi/bin/../lib/gcc/arm-eabi/4.3.2/libgcc.a(_udivdi3.o)
 .ARM.exidx     0x00000000        0x0 /home/psampaio/Develop/ecos/gnutools/arm-eabi/bin/../lib/gcc/arm-eabi/4.3.2/libgcc.a(_udivdi3.o)

Memory Configuration

Name             Origin             Length             Attributes
ram              0x40000000         0x00010000
rom              0x00000000         0x00020000
*default*        0x00000000         0xffffffff

Linker script and memory map

LOAD ../lpc2106_install/lib/vectors.o
LOAD /tmp/cckwxeNr.o
LOAD ../lpc2106_install/lib/extras.o
START GROUP
LOAD ../lpc2106_install/lib/libtarget.a
LOAD /home/psampaio/Develop/ecos/gnutools/arm-eabi/bin/../lib/gcc/arm-eabi/4.3.2/libgcc.a
LOAD /home/psampaio/Develop/ecos/gnutools/arm-eabi/bin/../lib/gcc/arm-eabi/4.3.2/../../../../arm-eabi/lib/libsupc++.a
END GROUP

.debug_aranges  0x00000000     0x16f0
 *(.debug_aranges)
 .debug_aranges
                0x00000000       0x28 ../lpc2106_install/lib/vectors.o
 .debug_aranges
                0x00000028       0x20 /tmp/cckwxeNr.o
 .debug_aranges
                0x00000048      0x128 ../lpc2106_install/lib/extras.o
 .debug_aranges
                0x00000170       0xc8 ../lpc2106_install/lib/libtarget.a(hal_common_hal_if.o)
 .debug_aranges
                0x00000238       0x30 ../lpc2106_install/lib/libtarget.a(hal_common_hal_misc.o)
 .debug_aranges
                0x00000268       0x98 ../lpc2106_install/lib/libtarget.a(io_common_iosys.o)
 .debug_aranges
                0x00000300       0x20 ../lpc2106_install/lib/libtarget.a(infra_startup.o)
 .debug_aranges
                0x00000320       0x20 ../lpc2106_install/lib/libtarget.a(infra_prestart.o)
 .debug_aranges
                0x00000340       0x20 ../lpc2106_install/lib/libtarget.a(infra_pkgstart.o)
 .debug_aranges
                0x00000360       0x20 ../lpc2106_install/lib/libtarget.a(infra_userstart.o)
 .debug_aranges
                0x00000380       0xe0 ../lpc2106_install/lib/libtarget.a(infra_diag.o)
 .debug_aranges
                0x00000460      0x3d0 ../lpc2106_install/lib/libtarget.a(kernel_kapi.o)
 .debug_aranges
                0x00000830      0x108 ../lpc2106_install/lib/libtarget.a(kernel_thread.o)
 .debug_aranges
                0x00000938       0x58 ../lpc2106_install/lib/libtarget.a(kernel_except.o)
 .debug_aranges
                0x00000990       0xd8 ../lpc2106_install/lib/libtarget.a(kernel_intr.o)
 .debug_aranges
                0x00000a68       0xc8 ../lpc2106_install/lib/libtarget.a(kernel_mlqueue.o)
 .debug_aranges
                0x00000b30       0xa0 ../lpc2106_install/lib/libtarget.a(kernel_sched.o)
 .debug_aranges
                0x00000bd0       0x60 ../lpc2106_install/lib/libtarget.a(kernel_cnt_sem.o)
 .debug_aranges
                0x00000c30       0x60 ../lpc2106_install/lib/libtarget.a(kernel_flag.o)
 .debug_aranges
                0x00000c90       0x70 ../lpc2106_install/lib/libtarget.a(kernel_mbox.o)
 .debug_aranges
                0x00000d00       0xc8 ../lpc2106_install/lib/libtarget.a(kernel_mutex.o)
 .debug_aranges
                0x00000dc8       0x30 ../lpc2106_install/lib/libtarget.a(language_c_libc_startup_mainthread.o)
 .debug_aranges
                0x00000df8       0x50 ../lpc2106_install/lib/libtarget.a(language_c_libc_stdio_stdioinlines.o)
 .debug_aranges
                0x00000e48       0x30 ../lpc2106_install/lib/libtarget.a(language_c_libc_stdio_stdout.o)
 .debug_aranges
                0x00000e78       0xa8 ../lpc2106_install/lib/libtarget.a(language_c_libc_stdio_stream.o)
 .debug_aranges
                0x00000f20       0x20 ../lpc2106_install/lib/libtarget.a(language_c_libc_stdio_streambuf.o)
 .debug_aranges
                0x00000f40       0x40 ../lpc2106_install/lib/libtarget.a(language_c_libc_stdio_vsnprintf.o)
 .debug_aranges
                0x00000f80       0x28 ../lpc2106_install/lib/libtarget.a(language_c_libc_stdio_vfscanf.o)
 .debug_aranges
                0x00000fa8       0x20 ../lpc2106_install/lib/libtarget.a(language_c_libc_stdio_fprintf.o)
 .debug_aranges
                0x00000fc8       0x28 ../lpc2106_install/lib/libtarget.a(language_c_libc_stdio_fputc.o)
 .debug_aranges
                0x00000ff0       0x20 ../lpc2106_install/lib/libtarget.a(language_c_libc_stdio_fputs.o)
 .debug_aranges
                0x00001010       0x28 ../lpc2106_install/lib/libtarget.a(language_c_libc_stdio_vfnprintf.o)
 .debug_aranges
                0x00001038       0x28 ../lpc2106_install/lib/libtarget.a(language_c_libc_stdlib_strtod.o)
 .debug_aranges
                0x00001060       0x20 ../lpc2106_install/lib/libtarget.a(language_c_libc_stdlib_strtol.o)
 .debug_aranges
                0x00001080       0x20 ../lpc2106_install/lib/libtarget.a(language_c_libc_stdlib_strtoul.o)
 .debug_aranges
                0x000010a0       0x20 ../lpc2106_install/lib/libtarget.a(language_c_libc_stdlib_strtoll.o)
 .debug_aranges
                0x000010c0       0x20 ../lpc2106_install/lib/libtarget.a(language_c_libc_stdlib_strtoull.o)
 .debug_aranges
                0x000010e0       0x20 ../lpc2106_install/lib/libtarget.a(language_c_libc_string_memchr.o)
 .debug_aranges
                0x00001100       0x20 ../lpc2106_install/lib/libtarget.a(language_c_libc_string_strlen.o)
 .debug_aranges
                0x00001120       0x20 ../lpc2106_install/lib/libtarget.a(language_c_libm_s_modf.o)
 .debug_aranges
                0x00001140       0x20 ../lpc2106_install/lib/libtarget.a(error_strerror.o)
 .debug_aranges
                0x00001160       0x20 ../lpc2106_install/lib/libtarget.a(error_errno.o)
 .debug_aranges
                0x00001180       0x48 ../lpc2106_install/lib/libtarget.a(hal_arm_arch_hal_misc.o)
 .debug_aranges
                0x000011c8       0x20 ../lpc2106_install/lib/libtarget.a(hal_arm_arch_context.o)
 .debug_aranges
                0x000011e8       0x88 ../lpc2106_install/lib/libtarget.a(hal_arm_lpc2xxx_var_lpc2xxx_misc.o)
 .debug_aranges
                0x00001270       0x28 ../lpc2106_install/lib/libtarget.a(hal_arm_lpc2xxx_p2106_p2106_misc.o)
 .debug_aranges
                0x00001298       0x20 ../lpc2106_install/lib/libtarget.a(infra_memcpy.o)
 .debug_aranges
                0x000012b8       0x28 ../lpc2106_install/lib/libtarget.a(infra_delete.o)
 .debug_aranges
                0x000012e0      0x118 ../lpc2106_install/lib/libtarget.a(kernel_clock.o)
 .debug_aranges
                0x000013f8       0x40 ../lpc2106_install/lib/libtarget.a(services_memalloc_common_malloc.o)
 .debug_aranges
                0x00001438       0x30 ../lpc2106_install/lib/libtarget.a(services_memalloc_common_heaps.o)
 .debug_aranges
                0x00001468       0x20 ../lpc2106_install/lib/libtarget.a(language_c_libc_startup_invokemain.o)
 .debug_aranges
                0x00001488       0x28 ../lpc2106_install/lib/libtarget.a(language_c_libc_stdio_fflush.o)
 .debug_aranges
                0x000014b0       0x20 ../lpc2106_install/lib/libtarget.a(language_c_libc_stdio_setvbuf.o)
 .debug_aranges
                0x000014d0       0x30 ../lpc2106_install/lib/libtarget.a(language_c_libc_stdio_stderr.o)
 .debug_aranges
                0x00001500       0x30 ../lpc2106_install/lib/libtarget.a(language_c_libc_stdio_stdin.o)
 .debug_aranges
                0x00001530       0x30 ../lpc2106_install/lib/libtarget.a(language_c_libc_stdio_stdiofiles.o)
 .debug_aranges
                0x00001560       0x20 ../lpc2106_install/lib/libtarget.a(language_c_libc_stdio_stdiosupp.o)
 .debug_aranges
                0x00001580       0x20 ../lpc2106_install/lib/libtarget.a(language_c_libc_stdio_ungetc.o)
 .debug_aranges
                0x000015a0       0x60 ../lpc2106_install/lib/libtarget.a(hal_arm_lpc2xxx_var_hal_diag.o)
 .debug_aranges
                0x00001600       0x20 ../lpc2106_install/lib/libtarget.a(infra_memset.o)
 .debug_aranges
                0x00001620       0x48 ../lpc2106_install/lib/libtarget.a(services_memalloc_common_dlmalloc.o)
 .debug_aranges
                0x00001668       0x20 ../lpc2106_install/lib/libtarget.a(language_c_libc_startup_exit.o)
 .debug_aranges
                0x00001688       0x20 ../lpc2106_install/lib/libtarget.a(language_c_libc_string_memmove.o)
 .debug_aranges
                0x000016a8       0x20 ../lpc2106_install/lib/libtarget.a(language_c_libc_startup__exit.o)
 .debug_aranges
                0x000016c8       0x28 ../lpc2106_install/lib/libtarget.a(language_c_libc_startup_atexit.o)

.debug_pubnames
                0x00000000     0x38a3
 *(.debug_pubnames)
 .debug_pubnames
                0x00000000       0x1b /tmp/cckwxeNr.o
 .debug_pubnames
                0x0000001b       0xb0 ../lpc2106_install/lib/extras.o
 .debug_pubnames
                0x000000cb       0xb1 ../lpc2106_install/lib/libtarget.a(hal_common_hal_if.o)
 .debug_pubnames
                0x0000017c       0x6e ../lpc2106_install/lib/libtarget.a(hal_common_hal_misc.o)
 .debug_pubnames
                0x000001ea      0x14f ../lpc2106_install/lib/libtarget.a(io_common_iosys.o)
 .debug_pubnames
                0x00000339       0x20 ../lpc2106_install/lib/libtarget.a(infra_startup.o)
 .debug_pubnames
                0x00000359       0x23 ../lpc2106_install/lib/libtarget.a(infra_prestart.o)
 .debug_pubnames
                0x0000037c       0x28 ../lpc2106_install/lib/libtarget.a(infra_pkgstart.o)
 .debug_pubnames
                0x000003a4       0x25 ../lpc2106_install/lib/libtarget.a(infra_userstart.o)
 .debug_pubnames
                0x000003c9      0x1cb ../lpc2106_install/lib/libtarget.a(infra_diag.o)
 .debug_pubnames
                0x00000594      0xb40 ../lpc2106_install/lib/libtarget.a(kernel_kapi.o)
 .debug_pubnames
                0x000010d4      0x364 ../lpc2106_install/lib/libtarget.a(kernel_thread.o)
 .debug_pubnames
                0x00001438      0x15e ../lpc2106_install/lib/libtarget.a(kernel_except.o)
 .debug_pubnames
                0x00001596      0x3b3 ../lpc2106_install/lib/libtarget.a(kernel_intr.o)
 .debug_pubnames
                0x00001949      0x47c ../lpc2106_install/lib/libtarget.a(kernel_mlqueue.o)
 .debug_pubnames
                0x00001dc5      0x2df ../lpc2106_install/lib/libtarget.a(kernel_sched.o)
 .debug_pubnames
                0x000020a4      0x188 ../lpc2106_install/lib/libtarget.a(kernel_cnt_sem.o)
 .debug_pubnames
                0x0000222c       0xd6 ../lpc2106_install/lib/libtarget.a(kernel_flag.o)
 .debug_pubnames
                0x00002302       0xfa ../lpc2106_install/lib/libtarget.a(kernel_mbox.o)
 .debug_pubnames
                0x000023fc      0x304 ../lpc2106_install/lib/libtarget.a(kernel_mutex.o)
 .debug_pubnames
                0x00002700       0x2b ../lpc2106_install/lib/libtarget.a(language_c_libc_startup_mainthread.o)
 .debug_pubnames
                0x0000272b       0x62 ../lpc2106_install/lib/libtarget.a(language_c_libc_stdio_stdioinlines.o)
 .debug_pubnames
                0x0000278d       0x37 ../lpc2106_install/lib/libtarget.a(language_c_libc_stdio_stdout.o)
 .debug_pubnames
                0x000027c4      0x283 ../lpc2106_install/lib/libtarget.a(language_c_libc_stdio_stream.o)
 .debug_pubnames
                0x00002a47       0x38 ../lpc2106_install/lib/libtarget.a(language_c_libc_stdio_streambuf.o)
 .debug_pubnames
                0x00002a7f       0xbe ../lpc2106_install/lib/libtarget.a(language_c_libc_stdio_vsnprintf.o)
 .debug_pubnames
                0x00002b3d       0x40 ../lpc2106_install/lib/libtarget.a(language_c_libc_stdio_vfscanf.o)
 .debug_pubnames
                0x00002b7d       0x1e ../lpc2106_install/lib/libtarget.a(language_c_libc_stdio_fprintf.o)
 .debug_pubnames
                0x00002b9b       0x28 ../lpc2106_install/lib/libtarget.a(language_c_libc_stdio_fputc.o)
 .debug_pubnames
                0x00002bc3       0x1c ../lpc2106_install/lib/libtarget.a(language_c_libc_stdio_fputs.o)
 .debug_pubnames
                0x00002bdf       0x20 ../lpc2106_install/lib/libtarget.a(language_c_libc_stdio_vfnprintf.o)
 .debug_pubnames
                0x00002bff       0x1d ../lpc2106_install/lib/libtarget.a(language_c_libc_stdlib_strtod.o)
 .debug_pubnames
                0x00002c1c       0x1d ../lpc2106_install/lib/libtarget.a(language_c_libc_stdlib_strtol.o)
 .debug_pubnames
                0x00002c39       0x1e ../lpc2106_install/lib/libtarget.a(language_c_libc_stdlib_strtoul.o)
 .debug_pubnames
                0x00002c57       0x1e ../lpc2106_install/lib/libtarget.a(language_c_libc_stdlib_strtoll.o)
 .debug_pubnames
                0x00002c75       0x1f ../lpc2106_install/lib/libtarget.a(language_c_libc_stdlib_strtoull.o)
 .debug_pubnames
                0x00002c94       0x1f ../lpc2106_install/lib/libtarget.a(language_c_libc_string_memchr.o)
 .debug_pubnames
                0x00002cb3       0x1f ../lpc2106_install/lib/libtarget.a(language_c_libc_string_strlen.o)
 .debug_pubnames
                0x00002cd2       0x4c ../lpc2106_install/lib/libtarget.a(language_c_libc_string_strsuppt.o)
 .debug_pubnames
                0x00002d1e       0x28 ../lpc2106_install/lib/libtarget.a(language_c_libm_infconst.o)
 .debug_pubnames
                0x00002d46       0x1b ../lpc2106_install/lib/libtarget.a(language_c_libm_s_modf.o)
 .debug_pubnames
                0x00002d61       0x21 ../lpc2106_install/lib/libtarget.a(error_strerror.o)
 .debug_pubnames
                0x00002d82       0x2c ../lpc2106_install/lib/libtarget.a(error_errno.o)
 .debug_pubnames
                0x00002dae       0x98 ../lpc2106_install/lib/libtarget.a(hal_arm_arch_hal_misc.o)
 .debug_pubnames
                0x00002e46      0x154 ../lpc2106_install/lib/libtarget.a(hal_arm_lpc2xxx_var_lpc2xxx_misc.o)
 .debug_pubnames
                0x00002f9a       0x46 ../lpc2106_install/lib/libtarget.a(hal_arm_lpc2xxx_p2106_p2106_misc.o)
 .debug_pubnames
                0x00002fe0       0x1e ../lpc2106_install/lib/libtarget.a(infra_memcpy.o)
 .debug_pubnames
                0x00002ffe       0x3d ../lpc2106_install/lib/libtarget.a(infra_delete.o)
 .debug_pubnames
                0x0000303b      0x37a ../lpc2106_install/lib/libtarget.a(kernel_clock.o)
 .debug_pubnames
                0x000033b5       0x4a ../lpc2106_install/lib/libtarget.a(services_memalloc_common_malloc.o)
 .debug_pubnames
                0x000033ff       0x42 ../lpc2106_install/lib/libtarget.a(services_memalloc_common_heaps.o)
 .debug_pubnames
                0x00003441       0x2b ../lpc2106_install/lib/libtarget.a(language_c_libc_startup_invokemain.o)
 .debug_pubnames
                0x0000346c       0x3e ../lpc2106_install/lib/libtarget.a(language_c_libc_stdio_fflush.o)
 .debug_pubnames
                0x000034aa       0x1e ../lpc2106_install/lib/libtarget.a(language_c_libc_stdio_setvbuf.o)
 .debug_pubnames
                0x000034c8       0x37 ../lpc2106_install/lib/libtarget.a(language_c_libc_stdio_stderr.o)
 .debug_pubnames
                0x000034ff       0x35 ../lpc2106_install/lib/libtarget.a(language_c_libc_stdio_stdin.o)
 .debug_pubnames
                0x00003534       0x57 ../lpc2106_install/lib/libtarget.a(language_c_libc_stdio_stdiofiles.o)
 .debug_pubnames
                0x0000358b       0x33 ../lpc2106_install/lib/libtarget.a(language_c_libc_stdio_stdiosupp.o)
 .debug_pubnames
                0x000035be       0x1d ../lpc2106_install/lib/libtarget.a(language_c_libc_stdio_ungetc.o)
 .debug_pubnames
                0x000035db       0x9b ../lpc2106_install/lib/libtarget.a(hal_arm_lpc2xxx_var_hal_diag.o)
 .debug_pubnames
                0x00003676       0x1e ../lpc2106_install/lib/libtarget.a(infra_memset.o)
 .debug_pubnames
                0x00003694      0x177 ../lpc2106_install/lib/libtarget.a(services_memalloc_common_dlmalloc.o)
 .debug_pubnames
                0x0000380b       0x1b ../lpc2106_install/lib/libtarget.a(language_c_libc_startup_exit.o)
 .debug_pubnames
                0x00003826       0x20 ../lpc2106_install/lib/libtarget.a(language_c_libc_string_memmove.o)
 .debug_pubnames
                0x00003846       0x1c ../lpc2106_install/lib/libtarget.a(language_c_libc_startup__exit.o)
 .debug_pubnames
                0x00003862       0x41 ../lpc2106_install/lib/libtarget.a(language_c_libc_startup_atexit.o)

.debug_info     0x00000000    0x58f8c
 *(.debug_info)
 .debug_info    0x00000000       0xb6 ../lpc2106_install/lib/vectors.o
 .debug_info    0x000000b6       0xda /tmp/cckwxeNr.o
 .debug_info    0x00000190     0x43ab ../lpc2106_install/lib/extras.o
 .debug_info    0x0000453b      0xf10 ../lpc2106_install/lib/libtarget.a(hal_common_hal_if.o)
 .debug_info    0x0000544b      0x176 ../lpc2106_install/lib/libtarget.a(hal_common_hal_misc.o)
 .debug_info    0x000055c1      0x913 ../lpc2106_install/lib/libtarget.a(io_common_iosys.o)
 .debug_info    0x00005ed4     0x1c0a ../lpc2106_install/lib/libtarget.a(infra_startup.o)
 .debug_info    0x00007ade       0x70 ../lpc2106_install/lib/libtarget.a(infra_prestart.o)
 .debug_info    0x00007b4e       0x70 ../lpc2106_install/lib/libtarget.a(infra_pkgstart.o)
 .debug_info    0x00007bbe       0x70 ../lpc2106_install/lib/libtarget.a(infra_userstart.o)
 .debug_info    0x00007c2e      0xb2f ../lpc2106_install/lib/libtarget.a(infra_diag.o)
 .debug_info    0x0000875d     0x57fc ../lpc2106_install/lib/libtarget.a(kernel_kapi.o)
 .debug_info    0x0000df59     0x4280 ../lpc2106_install/lib/libtarget.a(kernel_thread.o)
 .debug_info    0x000121d9     0x1e7b ../lpc2106_install/lib/libtarget.a(kernel_except.o)
 .debug_info    0x00014054     0x2a48 ../lpc2106_install/lib/libtarget.a(kernel_intr.o)
 .debug_info    0x00016a9c     0x2ed3 ../lpc2106_install/lib/libtarget.a(kernel_mlqueue.o)
 .debug_info    0x0001996f     0x2d45 ../lpc2106_install/lib/libtarget.a(kernel_sched.o)
 .debug_info    0x0001c6b4     0x2910 ../lpc2106_install/lib/libtarget.a(kernel_cnt_sem.o)
 .debug_info    0x0001efc4     0x2ef2 ../lpc2106_install/lib/libtarget.a(kernel_flag.o)
 .debug_info    0x00021eb6     0x393a ../lpc2106_install/lib/libtarget.a(kernel_mbox.o)
 .debug_info    0x000257f0     0x3560 ../lpc2106_install/lib/libtarget.a(kernel_mutex.o)
 .debug_info    0x00028d50     0x1c8a ../lpc2106_install/lib/libtarget.a(language_c_libc_startup_mainthread.o)
 .debug_info    0x0002a9da      0x284 ../lpc2106_install/lib/libtarget.a(language_c_libc_stdio_stdioinlines.o)
 .debug_info    0x0002ac5e     0x2162 ../lpc2106_install/lib/libtarget.a(language_c_libc_stdio_stdout.o)
 .debug_info    0x0002cdc0     0x334d ../lpc2106_install/lib/libtarget.a(language_c_libc_stdio_stream.o)
 .debug_info    0x0003010d      0x2f7 ../lpc2106_install/lib/libtarget.a(language_c_libc_stdio_streambuf.o)
 .debug_info    0x00030404     0x1df1 ../lpc2106_install/lib/libtarget.a(language_c_libc_stdio_vsnprintf.o)
 .debug_info    0x000321f5     0x248e ../lpc2106_install/lib/libtarget.a(language_c_libc_stdio_vfscanf.o)
 .debug_info    0x00034683      0x13e ../lpc2106_install/lib/libtarget.a(language_c_libc_stdio_fprintf.o)
 .debug_info    0x000347c1     0x1c7a ../lpc2106_install/lib/libtarget.a(language_c_libc_stdio_fputc.o)
 .debug_info    0x0003643b     0x1be6 ../lpc2106_install/lib/libtarget.a(language_c_libc_stdio_fputs.o)
 .debug_info    0x00038021     0x230b ../lpc2106_install/lib/libtarget.a(language_c_libc_stdio_vfnprintf.o)
 .debug_info    0x0003a32c      0x4aa ../lpc2106_install/lib/libtarget.a(language_c_libc_stdlib_strtod.o)
 .debug_info    0x0003a7d6      0x1f8 ../lpc2106_install/lib/libtarget.a(language_c_libc_stdlib_strtol.o)
 .debug_info    0x0003a9ce      0x1f0 ../lpc2106_install/lib/libtarget.a(language_c_libc_stdlib_strtoul.o)
 .debug_info    0x0003abbe      0x1f5 ../lpc2106_install/lib/libtarget.a(language_c_libc_stdlib_strtoll.o)
 .debug_info    0x0003adb3      0x1ed ../lpc2106_install/lib/libtarget.a(language_c_libc_stdlib_strtoull.o)
 .debug_info    0x0003afa0      0x159 ../lpc2106_install/lib/libtarget.a(language_c_libc_string_memchr.o)
 .debug_info    0x0003b0f9      0x110 ../lpc2106_install/lib/libtarget.a(language_c_libc_string_strlen.o)
 .debug_info    0x0003b209       0x8e ../lpc2106_install/lib/libtarget.a(language_c_libc_string_strsuppt.o)
 .debug_info    0x0003b297      0x263 ../lpc2106_install/lib/libtarget.a(language_c_libm_infconst.o)
 .debug_info    0x0003b4fa      0x2cd ../lpc2106_install/lib/libtarget.a(language_c_libm_s_modf.o)
 .debug_info    0x0003b7c7       0xa2 ../lpc2106_install/lib/libtarget.a(error_strerror.o)
 .debug_info    0x0003b869     0x1ce6 ../lpc2106_install/lib/libtarget.a(error_errno.o)
 .debug_info    0x0003d54f      0x28c ../lpc2106_install/lib/libtarget.a(hal_arm_arch_hal_misc.o)
 .debug_info    0x0003d7db       0xba ../lpc2106_install/lib/libtarget.a(hal_arm_arch_context.o)
 .debug_info    0x0003d895      0x447 ../lpc2106_install/lib/libtarget.a(hal_arm_lpc2xxx_var_lpc2xxx_misc.o)
 .debug_info    0x0003dcdc       0xa8 ../lpc2106_install/lib/libtarget.a(hal_arm_lpc2xxx_p2106_p2106_misc.o)
 .debug_info    0x0003dd84      0x12c ../lpc2106_install/lib/libtarget.a(infra_memcpy.o)
 .debug_info    0x0003deb0       0xa8 ../lpc2106_install/lib/libtarget.a(infra_delete.o)
 .debug_info    0x0003df58     0x39bf ../lpc2106_install/lib/libtarget.a(kernel_clock.o)
 .debug_info    0x00041917     0x2f62 ../lpc2106_install/lib/libtarget.a(services_memalloc_common_malloc.o)
 .debug_info    0x00044879     0x27d8 ../lpc2106_install/lib/libtarget.a(services_memalloc_common_heaps.o)
 .debug_info    0x00047051       0xd4 ../lpc2106_install/lib/libtarget.a(language_c_libc_startup_invokemain.o)
 .debug_info    0x00047125     0x1f81 ../lpc2106_install/lib/libtarget.a(language_c_libc_stdio_fflush.o)
 .debug_info    0x000490a6     0x1b7e ../lpc2106_install/lib/libtarget.a(language_c_libc_stdio_setvbuf.o)
 .debug_info    0x0004ac24     0x2162 ../lpc2106_install/lib/libtarget.a(language_c_libc_stdio_stderr.o)
 .debug_info    0x0004cd86     0x2162 ../lpc2106_install/lib/libtarget.a(language_c_libc_stdio_stdin.o)
 .debug_info    0x0004eee8     0x1cfa ../lpc2106_install/lib/libtarget.a(language_c_libc_stdio_stdiofiles.o)
 .debug_info    0x00050be2     0x1b9e ../lpc2106_install/lib/libtarget.a(language_c_libc_stdio_stdiosupp.o)
 .debug_info    0x00052780     0x1bfe ../lpc2106_install/lib/libtarget.a(language_c_libc_stdio_ungetc.o)
 .debug_info    0x0005437e      0x7f4 ../lpc2106_install/lib/libtarget.a(hal_arm_lpc2xxx_var_hal_diag.o)
 .debug_info    0x00054b72      0x123 ../lpc2106_install/lib/libtarget.a(infra_memset.o)
 .debug_info    0x00054c95     0x23e8 ../lpc2106_install/lib/libtarget.a(services_memalloc_common_dlmalloc.o)
 .debug_info    0x0005707d       0xf8 ../lpc2106_install/lib/libtarget.a(language_c_libc_startup_exit.o)
 .debug_info    0x00057175       0xee ../lpc2106_install/lib/libtarget.a(language_c_libc_string_memmove.o)
 .debug_info    0x00057263     0x1c23 ../lpc2106_install/lib/libtarget.a(language_c_libc_startup__exit.o)
 .debug_info    0x00058e86      0x106 ../lpc2106_install/lib/libtarget.a(language_c_libc_startup_atexit.o)

.debug_abbrev   0x00000000     0xd0d4
 *(.debug_abbrev)
 .debug_abbrev  0x00000000       0x12 ../lpc2106_install/lib/vectors.o
 .debug_abbrev  0x00000012       0x90 /tmp/cckwxeNr.o
 .debug_abbrev  0x000000a2      0xae7 ../lpc2106_install/lib/extras.o
 .debug_abbrev  0x00000b89      0x2c9 ../lpc2106_install/lib/libtarget.a(hal_common_hal_if.o)
 .debug_abbrev  0x00000e52       0xfb ../lpc2106_install/lib/libtarget.a(hal_common_hal_misc.o)
 .debug_abbrev  0x00000f4d      0x21f ../lpc2106_install/lib/libtarget.a(io_common_iosys.o)
 .debug_abbrev  0x0000116c      0x358 ../lpc2106_install/lib/libtarget.a(infra_startup.o)
 .debug_abbrev  0x000014c4       0x3d ../lpc2106_install/lib/libtarget.a(infra_prestart.o)
 .debug_abbrev  0x00001501       0x3d ../lpc2106_install/lib/libtarget.a(infra_pkgstart.o)
 .debug_abbrev  0x0000153e       0x3d ../lpc2106_install/lib/libtarget.a(infra_userstart.o)
 .debug_abbrev  0x0000157b      0x374 ../lpc2106_install/lib/libtarget.a(infra_diag.o)
 .debug_abbrev  0x000018ef      0x782 ../lpc2106_install/lib/libtarget.a(kernel_kapi.o)
 .debug_abbrev  0x00002071      0x6ef ../lpc2106_install/lib/libtarget.a(kernel_thread.o)
 .debug_abbrev  0x00002760      0x4b3 ../lpc2106_install/lib/libtarget.a(kernel_except.o)
 .debug_abbrev  0x00002c13      0x67e ../lpc2106_install/lib/libtarget.a(kernel_intr.o)
 .debug_abbrev  0x00003291      0x668 ../lpc2106_install/lib/libtarget.a(kernel_mlqueue.o)
 .debug_abbrev  0x000038f9      0x667 ../lpc2106_install/lib/libtarget.a(kernel_sched.o)
 .debug_abbrev  0x00003f60      0x590 ../lpc2106_install/lib/libtarget.a(kernel_cnt_sem.o)
 .debug_abbrev  0x000044f0      0x64a ../lpc2106_install/lib/libtarget.a(kernel_flag.o)
 .debug_abbrev  0x00004b3a      0x5f0 ../lpc2106_install/lib/libtarget.a(kernel_mbox.o)
 .debug_abbrev  0x0000512a      0x605 ../lpc2106_install/lib/libtarget.a(kernel_mutex.o)
 .debug_abbrev  0x0000572f      0x39d ../lpc2106_install/lib/libtarget.a(language_c_libc_startup_mainthread.o)
 .debug_abbrev  0x00005acc      0x10c ../lpc2106_install/lib/libtarget.a(language_c_libc_stdio_stdioinlines.o)
 .debug_abbrev  0x00005bd8      0x44b ../lpc2106_install/lib/libtarget.a(language_c_libc_stdio_stdout.o)
 .debug_abbrev  0x00006023      0x643 ../lpc2106_install/lib/libtarget.a(language_c_libc_stdio_stream.o)
 .debug_abbrev  0x00006666      0x14b ../lpc2106_install/lib/libtarget.a(language_c_libc_stdio_streambuf.o)
 .debug_abbrev  0x000067b1      0x519 ../lpc2106_install/lib/libtarget.a(language_c_libc_stdio_vsnprintf.o)
 .debug_abbrev  0x00006cca      0x53a ../lpc2106_install/lib/libtarget.a(language_c_libc_stdio_vfscanf.o)
 .debug_abbrev  0x00007204       0xd0 ../lpc2106_install/lib/libtarget.a(language_c_libc_stdio_fprintf.o)
 .debug_abbrev  0x000072d4      0x464 ../lpc2106_install/lib/libtarget.a(language_c_libc_stdio_fputc.o)
 .debug_abbrev  0x00007738      0x419 ../lpc2106_install/lib/libtarget.a(language_c_libc_stdio_fputs.o)
 .debug_abbrev  0x00007b51      0x51f ../lpc2106_install/lib/libtarget.a(language_c_libc_stdio_vfnprintf.o)
 .debug_abbrev  0x00008070      0x209 ../lpc2106_install/lib/libtarget.a(language_c_libc_stdlib_strtod.o)
 .debug_abbrev  0x00008279       0xde ../lpc2106_install/lib/libtarget.a(language_c_libc_stdlib_strtol.o)
 .debug_abbrev  0x00008357       0xdc ../lpc2106_install/lib/libtarget.a(language_c_libc_stdlib_strtoul.o)
 .debug_abbrev  0x00008433       0xcf ../lpc2106_install/lib/libtarget.a(language_c_libc_stdlib_strtoll.o)
 .debug_abbrev  0x00008502       0xcd ../lpc2106_install/lib/libtarget.a(language_c_libc_stdlib_strtoull.o)
 .debug_abbrev  0x000085cf       0xb7 ../lpc2106_install/lib/libtarget.a(language_c_libc_string_memchr.o)
 .debug_abbrev  0x00008686       0x9a ../lpc2106_install/lib/libtarget.a(language_c_libc_string_strlen.o)
 .debug_abbrev  0x00008720       0x4d ../lpc2106_install/lib/libtarget.a(language_c_libc_string_strsuppt.o)
 .debug_abbrev  0x0000876d       0xe7 ../lpc2106_install/lib/libtarget.a(language_c_libm_infconst.o)
 .debug_abbrev  0x00008854      0x143 ../lpc2106_install/lib/libtarget.a(language_c_libm_s_modf.o)
 .debug_abbrev  0x00008997       0x68 ../lpc2106_install/lib/libtarget.a(error_strerror.o)
 .debug_abbrev  0x000089ff      0x402 ../lpc2106_install/lib/libtarget.a(error_errno.o)
 .debug_abbrev  0x00008e01      0x15b ../lpc2106_install/lib/libtarget.a(hal_arm_arch_hal_misc.o)
 .debug_abbrev  0x00008f5c       0x14 ../lpc2106_install/lib/libtarget.a(hal_arm_arch_context.o)
 .debug_abbrev  0x00008f70      0x23d ../lpc2106_install/lib/libtarget.a(hal_arm_lpc2xxx_var_lpc2xxx_misc.o)
 .debug_abbrev  0x000091ad       0x74 ../lpc2106_install/lib/libtarget.a(hal_arm_lpc2xxx_p2106_p2106_misc.o)
 .debug_abbrev  0x00009221       0x97 ../lpc2106_install/lib/libtarget.a(infra_memcpy.o)
 .debug_abbrev  0x000092b8       0x6e ../lpc2106_install/lib/libtarget.a(infra_delete.o)
 .debug_abbrev  0x00009326      0x71e ../lpc2106_install/lib/libtarget.a(kernel_clock.o)
 .debug_abbrev  0x00009a44      0x604 ../lpc2106_install/lib/libtarget.a(services_memalloc_common_malloc.o)
 .debug_abbrev  0x0000a048      0x54a ../lpc2106_install/lib/libtarget.a(services_memalloc_common_heaps.o)
 .debug_abbrev  0x0000a592       0xa2 ../lpc2106_install/lib/libtarget.a(language_c_libc_startup_invokemain.o)
 .debug_abbrev  0x0000a634      0x4bc ../lpc2106_install/lib/libtarget.a(language_c_libc_stdio_fflush.o)
 .debug_abbrev  0x0000aaf0      0x3e0 ../lpc2106_install/lib/libtarget.a(language_c_libc_stdio_setvbuf.o)
 .debug_abbrev  0x0000aed0      0x44b ../lpc2106_install/lib/libtarget.a(language_c_libc_stdio_stderr.o)
 .debug_abbrev  0x0000b31b      0x44b ../lpc2106_install/lib/libtarget.a(language_c_libc_stdio_stdin.o)
 .debug_abbrev  0x0000b766      0x39b ../lpc2106_install/lib/libtarget.a(language_c_libc_stdio_stdiofiles.o)
 .debug_abbrev  0x0000bb01      0x3ea ../lpc2106_install/lib/libtarget.a(language_c_libc_stdio_stdiosupp.o)
 .debug_abbrev  0x0000beeb      0x419 ../lpc2106_install/lib/libtarget.a(language_c_libc_stdio_ungetc.o)
 .debug_abbrev  0x0000c304      0x386 ../lpc2106_install/lib/libtarget.a(hal_arm_lpc2xxx_var_hal_diag.o)
 .debug_abbrev  0x0000c68a       0x8b ../lpc2106_install/lib/libtarget.a(infra_memset.o)
 .debug_abbrev  0x0000c715      0x45e ../lpc2106_install/lib/libtarget.a(services_memalloc_common_dlmalloc.o)
 .debug_abbrev  0x0000cb73       0xaa ../lpc2106_install/lib/libtarget.a(language_c_libc_startup_exit.o)
 .debug_abbrev  0x0000cc1d       0x88 ../lpc2106_install/lib/libtarget.a(language_c_libc_string_memmove.o)
 .debug_abbrev  0x0000cca5      0x369 ../lpc2106_install/lib/libtarget.a(language_c_libc_startup__exit.o)
 .debug_abbrev  0x0000d00e       0xc6 ../lpc2106_install/lib/libtarget.a(language_c_libc_startup_atexit.o)

.debug_line     0x00000000     0xf07d
 *(.debug_line)
 .debug_line    0x00000000      0x1c9 ../lpc2106_install/lib/vectors.o
 .debug_line    0x000001c9       0x9f /tmp/cckwxeNr.o
 .debug_line    0x00000268      0xb7c ../lpc2106_install/lib/extras.o
 .debug_line    0x00000de4      0x541 ../lpc2106_install/lib/libtarget.a(hal_common_hal_if.o)
 .debug_line    0x00001325      0x151 ../lpc2106_install/lib/libtarget.a(hal_common_hal_misc.o)
 .debug_line    0x00001476      0x2d4 ../lpc2106_install/lib/libtarget.a(io_common_iosys.o)
 .debug_line    0x0000174a      0x1dd ../lpc2106_install/lib/libtarget.a(infra_startup.o)
 .debug_line    0x00001927       0x7d ../lpc2106_install/lib/libtarget.a(infra_prestart.o)
 .debug_line    0x000019a4       0x7d ../lpc2106_install/lib/libtarget.a(infra_pkgstart.o)
 .debug_line    0x00001a21       0x7e ../lpc2106_install/lib/libtarget.a(infra_userstart.o)
 .debug_line    0x00001a9f      0x577 ../lpc2106_install/lib/libtarget.a(infra_diag.o)
 .debug_line    0x00002016      0xed2 ../lpc2106_install/lib/libtarget.a(kernel_kapi.o)
 .debug_line    0x00002ee8      0xe10 ../lpc2106_install/lib/libtarget.a(kernel_thread.o)
 .debug_line    0x00003cf8      0x29a ../lpc2106_install/lib/libtarget.a(kernel_except.o)
 .debug_line    0x00003f92      0x4de ../lpc2106_install/lib/libtarget.a(kernel_intr.o)
 .debug_line    0x00004470      0x6a8 ../lpc2106_install/lib/libtarget.a(kernel_mlqueue.o)
 .debug_line    0x00004b18      0x4fc ../lpc2106_install/lib/libtarget.a(kernel_sched.o)
 .debug_line    0x00005014      0x4d4 ../lpc2106_install/lib/libtarget.a(kernel_cnt_sem.o)
 .debug_line    0x000054e8      0x6b8 ../lpc2106_install/lib/libtarget.a(kernel_flag.o)
 .debug_line    0x00005ba0      0x87c ../lpc2106_install/lib/libtarget.a(kernel_mbox.o)
 .debug_line    0x0000641c      0x929 ../lpc2106_install/lib/libtarget.a(kernel_mutex.o)
 .debug_line    0x00006d45      0x222 ../lpc2106_install/lib/libtarget.a(language_c_libc_startup_mainthread.o)
 .debug_line    0x00006f67      0x229 ../lpc2106_install/lib/libtarget.a(language_c_libc_stdio_stdioinlines.o)
 .debug_line    0x00007190      0x3ae ../lpc2106_install/lib/libtarget.a(language_c_libc_stdio_stdout.o)
 .debug_line    0x0000753e      0x971 ../lpc2106_install/lib/libtarget.a(language_c_libc_stdio_stream.o)
 .debug_line    0x00007eaf      0x1b4 ../lpc2106_install/lib/libtarget.a(language_c_libc_stdio_streambuf.o)
 .debug_line    0x00008063      0x396 ../lpc2106_install/lib/libtarget.a(language_c_libc_stdio_vsnprintf.o)
 .debug_line    0x000083f9      0x8d8 ../lpc2106_install/lib/libtarget.a(language_c_libc_stdio_vfscanf.o)
 .debug_line    0x00008cd1      0x19a ../lpc2106_install/lib/libtarget.a(language_c_libc_stdio_fprintf.o)
 .debug_line    0x00008e6b      0x2ea ../lpc2106_install/lib/libtarget.a(language_c_libc_stdio_fputc.o)
 .debug_line    0x00009155      0x2ca ../lpc2106_install/lib/libtarget.a(language_c_libc_stdio_fputs.o)
 .debug_line    0x0000941f      0x7a4 ../lpc2106_install/lib/libtarget.a(language_c_libc_stdio_vfnprintf.o)
 .debug_line    0x00009bc3      0x328 ../lpc2106_install/lib/libtarget.a(language_c_libc_stdlib_strtod.o)
 .debug_line    0x00009eeb      0x134 ../lpc2106_install/lib/libtarget.a(language_c_libc_stdlib_strtol.o)
 .debug_line    0x0000a01f      0x12c ../lpc2106_install/lib/libtarget.a(language_c_libc_stdlib_strtoul.o)
 .debug_line    0x0000a14b      0x145 ../lpc2106_install/lib/libtarget.a(language_c_libc_stdlib_strtoll.o)
 .debug_line    0x0000a290      0x144 ../lpc2106_install/lib/libtarget.a(language_c_libc_stdlib_strtoull.o)
 .debug_line    0x0000a3d4      0x1e1 ../lpc2106_install/lib/libtarget.a(language_c_libc_string_memchr.o)
 .debug_line    0x0000a5b5      0x1b1 ../lpc2106_install/lib/libtarget.a(language_c_libc_string_strlen.o)
 .debug_line    0x0000a766       0xce ../lpc2106_install/lib/libtarget.a(language_c_libc_string_strsuppt.o)
 .debug_line    0x0000a834      0x1a7 ../lpc2106_install/lib/libtarget.a(language_c_libm_infconst.o)
 .debug_line    0x0000a9db      0x1f4 ../lpc2106_install/lib/libtarget.a(language_c_libm_s_modf.o)
 .debug_line    0x0000abcf      0x105 ../lpc2106_install/lib/libtarget.a(error_strerror.o)
 .debug_line    0x0000acd4      0x241 ../lpc2106_install/lib/libtarget.a(error_errno.o)
 .debug_line    0x0000af15      0x192 ../lpc2106_install/lib/libtarget.a(hal_arm_arch_hal_misc.o)
 .debug_line    0x0000b0a7       0x96 ../lpc2106_install/lib/libtarget.a(hal_arm_arch_context.o)
 .debug_line    0x0000b13d      0x2a4 ../lpc2106_install/lib/libtarget.a(hal_arm_lpc2xxx_var_lpc2xxx_misc.o)
 .debug_line    0x0000b3e1       0xa1 ../lpc2106_install/lib/libtarget.a(hal_arm_lpc2xxx_p2106_p2106_misc.o)
 .debug_line    0x0000b482      0x171 ../lpc2106_install/lib/libtarget.a(infra_memcpy.o)
 .debug_line    0x0000b5f3       0x8e ../lpc2106_install/lib/libtarget.a(infra_delete.o)
 .debug_line    0x0000b681      0x9b0 ../lpc2106_install/lib/libtarget.a(kernel_clock.o)
 .debug_line    0x0000c031      0x5cf ../lpc2106_install/lib/libtarget.a(services_memalloc_common_malloc.o)
 .debug_line    0x0000c600      0x3b6 ../lpc2106_install/lib/libtarget.a(services_memalloc_common_heaps.o)
 .debug_line    0x0000c9b6       0xee ../lpc2106_install/lib/libtarget.a(language_c_libc_startup_invokemain.o)
 .debug_line    0x0000caa4      0x368 ../lpc2106_install/lib/libtarget.a(language_c_libc_stdio_fflush.o)
 .debug_line    0x0000ce0c      0x352 ../lpc2106_install/lib/libtarget.a(language_c_libc_stdio_setvbuf.o)
 .debug_line    0x0000d15e      0x3ad ../lpc2106_install/lib/libtarget.a(language_c_libc_stdio_stderr.o)
 .debug_line    0x0000d50b      0x3ad ../lpc2106_install/lib/libtarget.a(language_c_libc_stdio_stdin.o)
 .debug_line    0x0000d8b8      0x28a ../lpc2106_install/lib/libtarget.a(language_c_libc_stdio_stdiofiles.o)
 .debug_line    0x0000db42      0x310 ../lpc2106_install/lib/libtarget.a(language_c_libc_stdio_stdiosupp.o)
 .debug_line    0x0000de52      0x2ee ../lpc2106_install/lib/libtarget.a(language_c_libc_stdio_ungetc.o)
 .debug_line    0x0000e140      0x341 ../lpc2106_install/lib/libtarget.a(hal_arm_lpc2xxx_var_hal_diag.o)
 .debug_line    0x0000e481      0x17a ../lpc2106_install/lib/libtarget.a(infra_memset.o)
 .debug_line    0x0000e5fb      0x50f ../lpc2106_install/lib/libtarget.a(services_memalloc_common_dlmalloc.o)
 .debug_line    0x0000eb0a      0x136 ../lpc2106_install/lib/libtarget.a(language_c_libc_startup_exit.o)
 .debug_line    0x0000ec40      0x106 ../lpc2106_install/lib/libtarget.a(language_c_libc_string_memmove.o)
 .debug_line    0x0000ed46      0x1ec ../lpc2106_install/lib/libtarget.a(language_c_libc_startup__exit.o)
 .debug_line    0x0000ef32      0x14b ../lpc2106_install/lib/libtarget.a(language_c_libc_startup_atexit.o)

.debug_frame    0x00000000     0x3224
 *(.debug_frame)
 .debug_frame   0x00000000       0x30 /tmp/cckwxeNr.o
 .debug_frame   0x00000030      0x26c ../lpc2106_install/lib/extras.o
 .debug_frame   0x0000029c      0x264 ../lpc2106_install/lib/libtarget.a(hal_common_hal_if.o)
 .debug_frame   0x00000500       0x40 ../lpc2106_install/lib/libtarget.a(hal_common_hal_misc.o)
 .debug_frame   0x00000540      0x168 ../lpc2106_install/lib/libtarget.a(io_common_iosys.o)
 .debug_frame   0x000006a8       0x28 ../lpc2106_install/lib/libtarget.a(infra_startup.o)
 .debug_frame   0x000006d0       0x20 ../lpc2106_install/lib/libtarget.a(infra_prestart.o)
 .debug_frame   0x000006f0       0x20 ../lpc2106_install/lib/libtarget.a(infra_pkgstart.o)
 .debug_frame   0x00000710       0x20 ../lpc2106_install/lib/libtarget.a(infra_userstart.o)
 .debug_frame   0x00000730      0x298 ../lpc2106_install/lib/libtarget.a(infra_diag.o)
 .debug_frame   0x000009c8      0x848 ../lpc2106_install/lib/libtarget.a(kernel_kapi.o)
 .debug_frame   0x00001210      0x310 ../lpc2106_install/lib/libtarget.a(kernel_thread.o)
 .debug_frame   0x00001520       0xa8 ../lpc2106_install/lib/libtarget.a(kernel_except.o)
 .debug_frame   0x000015c8      0x214 ../lpc2106_install/lib/libtarget.a(kernel_intr.o)
 .debug_frame   0x000017dc      0x1b4 ../lpc2106_install/lib/libtarget.a(kernel_mlqueue.o)
 .debug_frame   0x00001990      0x164 ../lpc2106_install/lib/libtarget.a(kernel_sched.o)
 .debug_frame   0x00001af4       0xe0 ../lpc2106_install/lib/libtarget.a(kernel_cnt_sem.o)
 .debug_frame   0x00001bd4      0x118 ../lpc2106_install/lib/libtarget.a(kernel_flag.o)
 .debug_frame   0x00001cec      0x13c ../lpc2106_install/lib/libtarget.a(kernel_mbox.o)
 .debug_frame   0x00001e28      0x214 ../lpc2106_install/lib/libtarget.a(kernel_mutex.o)
 .debug_frame   0x0000203c       0x48 ../lpc2106_install/lib/libtarget.a(language_c_libc_startup_mainthread.o)
 .debug_frame   0x00002084       0x94 ../lpc2106_install/lib/libtarget.a(language_c_libc_stdio_stdioinlines.o)
 .debug_frame   0x00002118       0x50 ../lpc2106_install/lib/libtarget.a(language_c_libc_stdio_stdout.o)
 .debug_frame   0x00002168      0x21c ../lpc2106_install/lib/libtarget.a(language_c_libc_stdio_stream.o)
 .debug_frame   0x00002384       0x2c ../lpc2106_install/lib/libtarget.a(language_c_libc_stdio_streambuf.o)
 .debug_frame   0x000023b0       0x7c ../lpc2106_install/lib/libtarget.a(language_c_libc_stdio_vsnprintf.o)
 .debug_frame   0x0000242c       0x60 ../lpc2106_install/lib/libtarget.a(language_c_libc_stdio_vfscanf.o)
 .debug_frame   0x0000248c       0x30 ../lpc2106_install/lib/libtarget.a(language_c_libc_stdio_fprintf.o)
 .debug_frame   0x000024bc       0x40 ../lpc2106_install/lib/libtarget.a(language_c_libc_stdio_fputc.o)
 .debug_frame   0x000024fc       0x30 ../lpc2106_install/lib/libtarget.a(language_c_libc_stdio_fputs.o)
 .debug_frame   0x0000252c       0x60 ../lpc2106_install/lib/libtarget.a(language_c_libc_stdio_vfnprintf.o)
 .debug_frame   0x0000258c       0x54 ../lpc2106_install/lib/libtarget.a(language_c_libc_stdlib_strtod.o)
 .debug_frame   0x000025e0       0x38 ../lpc2106_install/lib/libtarget.a(language_c_libc_stdlib_strtol.o)
 .debug_frame   0x00002618       0x38 ../lpc2106_install/lib/libtarget.a(language_c_libc_stdlib_strtoul.o)
 .debug_frame   0x00002650       0x38 ../lpc2106_install/lib/libtarget.a(language_c_libc_stdlib_strtoll.o)
 .debug_frame   0x00002688       0x38 ../lpc2106_install/lib/libtarget.a(language_c_libc_stdlib_strtoull.o)
 .debug_frame   0x000026c0       0x2c ../lpc2106_install/lib/libtarget.a(language_c_libc_string_memchr.o)
 .debug_frame   0x000026ec       0x28 ../lpc2106_install/lib/libtarget.a(language_c_libc_string_strlen.o)
 .debug_frame   0x00002714       0x30 ../lpc2106_install/lib/libtarget.a(language_c_libm_s_modf.o)
 .debug_frame   0x00002744       0x20 ../lpc2106_install/lib/libtarget.a(error_strerror.o)
 .debug_frame   0x00002764       0x20 ../lpc2106_install/lib/libtarget.a(error_errno.o)
 .debug_frame   0x00002784       0x7c ../lpc2106_install/lib/libtarget.a(hal_arm_arch_hal_misc.o)
 .debug_frame   0x00002800      0x110 ../lpc2106_install/lib/libtarget.a(hal_arm_lpc2xxx_var_lpc2xxx_misc.o)
 .debug_frame   0x00002910       0x30 ../lpc2106_install/lib/libtarget.a(hal_arm_lpc2xxx_p2106_p2106_misc.o)
 .debug_frame   0x00002940       0x2c ../lpc2106_install/lib/libtarget.a(infra_memcpy.o)
 .debug_frame   0x0000296c       0x30 ../lpc2106_install/lib/libtarget.a(infra_delete.o)
 .debug_frame   0x0000299c      0x320 ../lpc2106_install/lib/libtarget.a(kernel_clock.o)
 .debug_frame   0x00002cbc       0xac ../lpc2106_install/lib/libtarget.a(services_memalloc_common_malloc.o)
 .debug_frame   0x00002d68       0x50 ../lpc2106_install/lib/libtarget.a(services_memalloc_common_heaps.o)
 .debug_frame   0x00002db8       0x28 ../lpc2106_install/lib/libtarget.a(language_c_libc_startup_invokemain.o)
 .debug_frame   0x00002de0       0x54 ../lpc2106_install/lib/libtarget.a(language_c_libc_stdio_fflush.o)
 .debug_frame   0x00002e34       0x30 ../lpc2106_install/lib/libtarget.a(language_c_libc_stdio_setvbuf.o)
 .debug_frame   0x00002e64       0x50 ../lpc2106_install/lib/libtarget.a(language_c_libc_stdio_stderr.o)
 .debug_frame   0x00002eb4       0x50 ../lpc2106_install/lib/libtarget.a(language_c_libc_stdio_stdin.o)
 .debug_frame   0x00002f04       0x40 ../lpc2106_install/lib/libtarget.a(language_c_libc_stdio_stdiofiles.o)
 .debug_frame   0x00002f44       0x28 ../lpc2106_install/lib/libtarget.a(language_c_libc_stdio_stdiosupp.o)
 .debug_frame   0x00002f6c       0x2c ../lpc2106_install/lib/libtarget.a(language_c_libc_stdio_ungetc.o)
 .debug_frame   0x00002f98       0xf0 ../lpc2106_install/lib/libtarget.a(hal_arm_lpc2xxx_var_hal_diag.o)
 .debug_frame   0x00003088       0x28 ../lpc2106_install/lib/libtarget.a(infra_memset.o)
 .debug_frame   0x000030b0       0xd0 ../lpc2106_install/lib/libtarget.a(services_memalloc_common_dlmalloc.o)
 .debug_frame   0x00003180       0x20 ../lpc2106_install/lib/libtarget.a(language_c_libc_startup_exit.o)
 .debug_frame   0x000031a0       0x28 ../lpc2106_install/lib/libtarget.a(language_c_libc_string_memmove.o)
 .debug_frame   0x000031c8       0x20 ../lpc2106_install/lib/libtarget.a(language_c_libc_startup__exit.o)
 .debug_frame   0x000031e8       0x3c ../lpc2106_install/lib/libtarget.a(language_c_libc_startup_atexit.o)

.debug_str      0x00000000     0x901e
 *(.debug_str)
 .debug_str     0x00000000       0xa7 /tmp/cckwxeNr.o
                                 0xd9 (size before relaxing)
 .debug_str     0x000000a7     0x2a05 ../lpc2106_install/lib/extras.o
                               0x3e9f (size before relaxing)
 .debug_str     0x00002aac      0x57d ../lpc2106_install/lib/libtarget.a(hal_common_hal_if.o)
                                0x66e (size before relaxing)
 .debug_str     0x00003029       0xa5 ../lpc2106_install/lib/libtarget.a(hal_common_hal_misc.o)
                                0x17c (size before relaxing)
 .debug_str     0x000030ce      0x18e ../lpc2106_install/lib/libtarget.a(io_common_iosys.o)
                                0x318 (size before relaxing)
 .debug_str     0x0000325c       0x53 ../lpc2106_install/lib/libtarget.a(infra_startup.o)
                               0x23c0 (size before relaxing)
 .debug_str     0x000032af       0x57 ../lpc2106_install/lib/libtarget.a(infra_prestart.o)
                                 0xce (size before relaxing)
 .debug_str     0x00003306       0x5c ../lpc2106_install/lib/libtarget.a(infra_pkgstart.o)
                                 0xd3 (size before relaxing)
 .debug_str     0x00003362       0x5a ../lpc2106_install/lib/libtarget.a(infra_userstart.o)
                                 0xd1 (size before relaxing)
 .debug_str     0x000033bc      0x2c9 ../lpc2106_install/lib/libtarget.a(infra_diag.o)
                                0x476 (size before relaxing)
 .debug_str     0x00003685     0x1c0c ../lpc2106_install/lib/libtarget.a(kernel_kapi.o)
                               0x4374 (size before relaxing)
 .debug_str     0x00005291      0x870 ../lpc2106_install/lib/libtarget.a(kernel_thread.o)
                               0x354c (size before relaxing)
 .debug_str     0x00005b01       0xb8 ../lpc2106_install/lib/libtarget.a(kernel_except.o)
                               0x252f (size before relaxing)
 .debug_str     0x00005bb9      0x17f ../lpc2106_install/lib/libtarget.a(kernel_intr.o)
                               0x2d30 (size before relaxing)
 .debug_str     0x00005d38       0x77 ../lpc2106_install/lib/libtarget.a(kernel_mlqueue.o)
                               0x2ceb (size before relaxing)
 .debug_str     0x00005daf       0xf7 ../lpc2106_install/lib/libtarget.a(kernel_sched.o)
                               0x340c (size before relaxing)
 .debug_str     0x00005ea6       0x8b ../lpc2106_install/lib/libtarget.a(kernel_cnt_sem.o)
                               0x276c (size before relaxing)
 .debug_str     0x00005f31       0x97 ../lpc2106_install/lib/libtarget.a(kernel_flag.o)
                               0x27b7 (size before relaxing)
 .debug_str     0x00005fc8       0x52 ../lpc2106_install/lib/libtarget.a(kernel_mbox.o)
                               0x29c5 (size before relaxing)
 .debug_str     0x0000601a       0x67 ../lpc2106_install/lib/libtarget.a(kernel_mutex.o)
                               0x2a07 (size before relaxing)
 .debug_str     0x00006081       0xbe ../lpc2106_install/lib/libtarget.a(language_c_libc_startup_mainthread.o)
                               0x248e (size before relaxing)
 .debug_str     0x0000613f       0x83 ../lpc2106_install/lib/libtarget.a(language_c_libc_stdio_stdioinlines.o)
                                0x17c (size before relaxing)
 .debug_str     0x000061c2      0x494 ../lpc2106_install/lib/libtarget.a(language_c_libc_stdio_stdout.o)
                               0x28c2 (size before relaxing)
 .debug_str     0x00006656      0x6ac ../lpc2106_install/lib/libtarget.a(language_c_libc_stdio_stream.o)
                               0x2de3 (size before relaxing)
 .debug_str     0x00006d02       0x6f ../lpc2106_install/lib/libtarget.a(language_c_libc_stdio_streambuf.o)
                                0x3f4 (size before relaxing)
 .debug_str     0x00006d71       0xd1 ../lpc2106_install/lib/libtarget.a(language_c_libc_stdio_vsnprintf.o)
                               0x231b (size before relaxing)
 .debug_str     0x00006e42       0xfe ../lpc2106_install/lib/libtarget.a(language_c_libc_stdio_vfscanf.o)
                               0x2664 (size before relaxing)
 .debug_str     0x00006f40       0x60 ../lpc2106_install/lib/libtarget.a(language_c_libc_stdio_fprintf.o)
                                0x14b (size before relaxing)
 .debug_str     0x00006fa0       0xa0 ../lpc2106_install/lib/libtarget.a(language_c_libc_stdio_fputc.o)
                               0x22f5 (size before relaxing)
 .debug_str     0x00007040       0x64 ../lpc2106_install/lib/libtarget.a(language_c_libc_stdio_fputs.o)
                               0x22a7 (size before relaxing)
 .debug_str     0x000070a4      0x22e ../lpc2106_install/lib/libtarget.a(language_c_libc_stdio_vfnprintf.o)
                               0x2458 (size before relaxing)
 .debug_str     0x000072d2       0xc0 ../lpc2106_install/lib/libtarget.a(language_c_libc_stdlib_strtod.o)
                                0x2e4 (size before relaxing)
 .debug_str     0x00007392       0x7e ../lpc2106_install/lib/libtarget.a(language_c_libc_stdlib_strtol.o)
                                0x13e (size before relaxing)
 .debug_str     0x00007410       0x62 ../lpc2106_install/lib/libtarget.a(language_c_libc_stdlib_strtoul.o)
                                0x140 (size before relaxing)
 .debug_str     0x00007472       0x62 ../lpc2106_install/lib/libtarget.a(language_c_libc_stdlib_strtoll.o)
                                0x12e (size before relaxing)
 .debug_str     0x000074d4       0x64 ../lpc2106_install/lib/libtarget.a(language_c_libc_stdlib_strtoull.o)
                                0x130 (size before relaxing)
 .debug_str     0x00007538       0xa0 ../lpc2106_install/lib/libtarget.a(language_c_libc_string_memchr.o)
                                0x155 (size before relaxing)
 .debug_str     0x000075d8       0x62 ../lpc2106_install/lib/libtarget.a(language_c_libc_string_strlen.o)
                                0x150 (size before relaxing)
 .debug_str     0x0000763a       0x5b ../lpc2106_install/lib/libtarget.a(language_c_libc_string_strsuppt.o)
                                0x10f (size before relaxing)
 .debug_str     0x00007695       0x89 ../lpc2106_install/lib/libtarget.a(language_c_libm_infconst.o)
                                0x258 (size before relaxing)
 .debug_str     0x0000771e       0x6e ../lpc2106_install/lib/libtarget.a(language_c_libm_s_modf.o)
                                0x23d (size before relaxing)
 .debug_str     0x0000778c       0x5c ../lpc2106_install/lib/libtarget.a(error_strerror.o)
                                 0xd8 (size before relaxing)
 .debug_str     0x000077e8       0x5d ../lpc2106_install/lib/libtarget.a(error_errno.o)
                               0x2436 (size before relaxing)
 .debug_str     0x00007845       0xd9 ../lpc2106_install/lib/libtarget.a(hal_arm_arch_hal_misc.o)
                                0x1b9 (size before relaxing)
 .debug_str     0x0000791e      0x1b7 ../lpc2106_install/lib/libtarget.a(hal_arm_lpc2xxx_var_lpc2xxx_misc.o)
                                0x2cf (size before relaxing)
 .debug_str     0x00007ad5       0x86 ../lpc2106_install/lib/libtarget.a(hal_arm_lpc2xxx_p2106_p2106_misc.o)
                                0x10c (size before relaxing)
 .debug_str     0x00007b5b       0x5a ../lpc2106_install/lib/libtarget.a(infra_memcpy.o)
                                 0xfb (size before relaxing)
 .debug_str     0x00007bb5       0x79 ../lpc2106_install/lib/libtarget.a(infra_delete.o)
                                 0xf0 (size before relaxing)
 .debug_str     0x00007c2e      0x182 ../lpc2106_install/lib/libtarget.a(kernel_clock.o)
                               0x348a (size before relaxing)
 .debug_str     0x00007db0      0x667 ../lpc2106_install/lib/libtarget.a(services_memalloc_common_malloc.o)
                               0x2c6a (size before relaxing)
 .debug_str     0x00008417       0xb8 ../lpc2106_install/lib/libtarget.a(services_memalloc_common_heaps.o)
                               0x2c3c (size before relaxing)
 .debug_str     0x000084cf       0x7d ../lpc2106_install/lib/libtarget.a(language_c_libc_startup_invokemain.o)
                                0x11a (size before relaxing)
 .debug_str     0x0000854c      0x134 ../lpc2106_install/lib/libtarget.a(language_c_libc_stdio_fflush.o)
                               0x25ba (size before relaxing)
 .debug_str     0x00008680       0x68 ../lpc2106_install/lib/libtarget.a(language_c_libc_stdio_setvbuf.o)
                               0x2277 (size before relaxing)
 .debug_str     0x000086e8       0xe9 ../lpc2106_install/lib/libtarget.a(language_c_libc_stdio_stderr.o)
                               0x28c2 (size before relaxing)
 .debug_str     0x000087d1       0xe4 ../lpc2106_install/lib/libtarget.a(language_c_libc_stdio_stdin.o)
                               0x28bb (size before relaxing)
 .debug_str     0x000088b5       0xc7 ../lpc2106_install/lib/libtarget.a(language_c_libc_stdio_stdiofiles.o)
                               0x24b1 (size before relaxing)
 .debug_str     0x0000897c       0x8e ../lpc2106_install/lib/libtarget.a(language_c_libc_stdio_stdiosupp.o)
                               0x22c1 (size before relaxing)
 .debug_str     0x00008a0a       0x66 ../lpc2106_install/lib/libtarget.a(language_c_libc_stdio_ungetc.o)
                               0x22a5 (size before relaxing)
 .debug_str     0x00008a70      0x23e ../lpc2106_install/lib/libtarget.a(hal_arm_lpc2xxx_var_hal_diag.o)
                                0x508 (size before relaxing)
 .debug_str     0x00008cae       0x66 ../lpc2106_install/lib/libtarget.a(infra_memset.o)
                                0x121 (size before relaxing)
 .debug_str     0x00008d14      0x11d ../lpc2106_install/lib/libtarget.a(services_memalloc_common_dlmalloc.o)
                               0x2735 (size before relaxing)
 .debug_str     0x00008e31       0x58 ../lpc2106_install/lib/libtarget.a(language_c_libc_startup_exit.o)
                                0x114 (size before relaxing)
 .debug_str     0x00008e89       0x64 ../lpc2106_install/lib/libtarget.a(language_c_libc_string_memmove.o)
                                 0xe7 (size before relaxing)
 .debug_str     0x00008eed       0x59 ../lpc2106_install/lib/libtarget.a(language_c_libc_startup__exit.o)
                               0x23dc (size before relaxing)
 .debug_str     0x00008f46       0xd8 ../lpc2106_install/lib/libtarget.a(language_c_libc_startup_atexit.o)
                                0x165 (size before relaxing)

.debug_loc      0x00000000    0x10a40
 *(.debug_loc)
 .debug_loc     0x00000000       0x2a /tmp/cckwxeNr.o
 .debug_loc     0x0000002a      0xa2b ../lpc2106_install/lib/extras.o
 .debug_loc     0x00000a55      0x849 ../lpc2106_install/lib/libtarget.a(hal_common_hal_if.o)
 .debug_loc     0x0000129e       0x6d ../lpc2106_install/lib/libtarget.a(hal_common_hal_misc.o)
 .debug_loc     0x0000130b      0x5e1 ../lpc2106_install/lib/libtarget.a(io_common_iosys.o)
 .debug_loc     0x000018ec       0x2b ../lpc2106_install/lib/libtarget.a(infra_startup.o)
 .debug_loc     0x00001917     0x11af ../lpc2106_install/lib/libtarget.a(infra_diag.o)
 .debug_loc     0x00002ac6     0x10bb ../lpc2106_install/lib/libtarget.a(kernel_kapi.o)
 .debug_loc     0x00003b81      0xca5 ../lpc2106_install/lib/libtarget.a(kernel_thread.o)
 .debug_loc     0x00004826      0x140 ../lpc2106_install/lib/libtarget.a(kernel_except.o)
 .debug_loc     0x00004966      0x42f ../lpc2106_install/lib/libtarget.a(kernel_intr.o)
 .debug_loc     0x00004d95      0x479 ../lpc2106_install/lib/libtarget.a(kernel_mlqueue.o)
 .debug_loc     0x0000520e      0x3b9 ../lpc2106_install/lib/libtarget.a(kernel_sched.o)
 .debug_loc     0x000055c7      0x24a ../lpc2106_install/lib/libtarget.a(kernel_cnt_sem.o)
 .debug_loc     0x00005811      0x62a ../lpc2106_install/lib/libtarget.a(kernel_flag.o)
 .debug_loc     0x00005e3b      0x630 ../lpc2106_install/lib/libtarget.a(kernel_mbox.o)
 .debug_loc     0x0000646b      0x62a ../lpc2106_install/lib/libtarget.a(kernel_mutex.o)
 .debug_loc     0x00006a95       0x67 ../lpc2106_install/lib/libtarget.a(language_c_libc_startup_mainthread.o)
 .debug_loc     0x00006afc      0x1cd ../lpc2106_install/lib/libtarget.a(language_c_libc_stdio_stdioinlines.o)
 .debug_loc     0x00006cc9       0x9e ../lpc2106_install/lib/libtarget.a(language_c_libc_stdio_stdout.o)
 .debug_loc     0x00006d67      0xa69 ../lpc2106_install/lib/libtarget.a(language_c_libc_stdio_stream.o)
 .debug_loc     0x000077d0       0xbb ../lpc2106_install/lib/libtarget.a(language_c_libc_stdio_streambuf.o)
 .debug_loc     0x0000788b      0x148 ../lpc2106_install/lib/libtarget.a(language_c_libc_stdio_vsnprintf.o)
 .debug_loc     0x000079d3     0x16a0 ../lpc2106_install/lib/libtarget.a(language_c_libc_stdio_vfscanf.o)
 .debug_loc     0x00009073       0x3e ../lpc2106_install/lib/libtarget.a(language_c_libc_stdio_fprintf.o)
 .debug_loc     0x000090b1       0x8d ../lpc2106_install/lib/libtarget.a(language_c_libc_stdio_fputc.o)
 .debug_loc     0x0000913e       0x67 ../lpc2106_install/lib/libtarget.a(language_c_libc_stdio_fputs.o)
 .debug_loc     0x000091a5     0x2d5f ../lpc2106_install/lib/libtarget.a(language_c_libc_stdio_vfnprintf.o)
 .debug_loc     0x0000bf04      0x2df ../lpc2106_install/lib/libtarget.a(language_c_libc_stdlib_strtod.o)
 .debug_loc     0x0000c1e3      0x176 ../lpc2106_install/lib/libtarget.a(language_c_libc_stdlib_strtol.o)
 .debug_loc     0x0000c359      0x179 ../lpc2106_install/lib/libtarget.a(language_c_libc_stdlib_strtoul.o)
 .debug_loc     0x0000c4d2      0x2c7 ../lpc2106_install/lib/libtarget.a(language_c_libc_stdlib_strtoll.o)
 .debug_loc     0x0000c799      0x304 ../lpc2106_install/lib/libtarget.a(language_c_libc_stdlib_strtoull.o)
 .debug_loc     0x0000ca9d      0x196 ../lpc2106_install/lib/libtarget.a(language_c_libc_string_memchr.o)
 .debug_loc     0x0000cc33       0x7c ../lpc2106_install/lib/libtarget.a(language_c_libc_string_strlen.o)
 .debug_loc     0x0000ccaf       0xca ../lpc2106_install/lib/libtarget.a(language_c_libm_s_modf.o)
 .debug_loc     0x0000cd79      0x57a ../lpc2106_install/lib/libtarget.a(error_strerror.o)
 .debug_loc     0x0000d2f3       0xd1 ../lpc2106_install/lib/libtarget.a(hal_arm_arch_hal_misc.o)
 .debug_loc     0x0000d3c4      0x1d7 ../lpc2106_install/lib/libtarget.a(hal_arm_lpc2xxx_var_lpc2xxx_misc.o)
 .debug_loc     0x0000d59b      0x170 ../lpc2106_install/lib/libtarget.a(infra_memcpy.o)
 .debug_loc     0x0000d70b     0x1468 ../lpc2106_install/lib/libtarget.a(kernel_clock.o)
 .debug_loc     0x0000eb73      0x2a2 ../lpc2106_install/lib/libtarget.a(services_memalloc_common_malloc.o)
 .debug_loc     0x0000ee15       0xe2 ../lpc2106_install/lib/libtarget.a(services_memalloc_common_heaps.o)
 .debug_loc     0x0000eef7       0x2b ../lpc2106_install/lib/libtarget.a(language_c_libc_startup_invokemain.o)
 .debug_loc     0x0000ef22      0x17b ../lpc2106_install/lib/libtarget.a(language_c_libc_stdio_fflush.o)
 .debug_loc     0x0000f09d       0xc0 ../lpc2106_install/lib/libtarget.a(language_c_libc_stdio_setvbuf.o)
 .debug_loc     0x0000f15d       0x9e ../lpc2106_install/lib/libtarget.a(language_c_libc_stdio_stderr.o)
 .debug_loc     0x0000f1fb       0x9e ../lpc2106_install/lib/libtarget.a(language_c_libc_stdio_stdin.o)
 .debug_loc     0x0000f299       0x3c ../lpc2106_install/lib/libtarget.a(language_c_libc_stdio_stdiofiles.o)
 .debug_loc     0x0000f2d5       0x77 ../lpc2106_install/lib/libtarget.a(language_c_libc_stdio_stdiosupp.o)
 .debug_loc     0x0000f34c       0x84 ../lpc2106_install/lib/libtarget.a(language_c_libc_stdio_ungetc.o)
 .debug_loc     0x0000f3d0      0x3c2 ../lpc2106_install/lib/libtarget.a(hal_arm_lpc2xxx_var_hal_diag.o)
 .debug_loc     0x0000f792      0x123 ../lpc2106_install/lib/libtarget.a(infra_memset.o)
 .debug_loc     0x0000f8b5     0x1030 ../lpc2106_install/lib/libtarget.a(services_memalloc_common_dlmalloc.o)
 .debug_loc     0x000108e5       0x1e ../lpc2106_install/lib/libtarget.a(language_c_libc_startup_exit.o)
 .debug_loc     0x00010903       0xec ../lpc2106_install/lib/libtarget.a(language_c_libc_string_memmove.o)
 .debug_loc     0x000109ef       0x13 ../lpc2106_install/lib/libtarget.a(language_c_libc_startup__exit.o)
 .debug_loc     0x00010a02       0x3e ../lpc2106_install/lib/libtarget.a(language_c_libc_startup_atexit.o)

.debug_macinfo
 *(.debug_macinfo)

.note.arm.ident
 *(.note.arm.ident)

/DISCARD/
 *(.fini_array*)
 *(.ARM.extab* .gnu.linkonce.armextab.*)
 *(.ARM.exidx* .gnu.linkonce.armexidx.*)
 *(.gcc_except_table*)

.rom_vectors    0x00000000       0x40
                0x00000000                __rom_vectors_vma = ABSOLUTE (.)
                0x00000000                . = .
 *(.vectors)
 .vectors       0x00000000       0x40 ../lpc2106_install/lib/vectors.o
                0x00000000                __exception_handlers
                0x00000020                vectors
                0x00000000                __rom_vectors_lma = LOADADDR (.rom_vectors)

.ARM.extab      0x00000040        0x0
                0x00000040                PROVIDE (__stext, ABSOLUTE (.))
                0x00000040                _stext = ABSOLUTE (.)
                0x00000040                . = .
                0x00000040                . = ALIGN (0x8)
                0x00000040                . = ALIGN (0x8)
                0x00000040                __exidx_start = ABSOLUTE (.)

.ARM.exidx      0x00000040        0x0
                0x00000040                . = .
                0x00000040                __exidx_end = ABSOLUTE (.)

.text           0x00000040    0x128fc
 *(.text*)
 .text          0x00000040      0x584 ../lpc2106_install/lib/vectors.o
                0x000004e4                hal_interrupt_stack_call_pending_DSRs
                0x00000544                __gccmain
                0x00000258                reset_platform
                0x00000040                reset_vector
                0x00000550                _sp
                0x00000548                _psr
                0x00000104                start
 .text          0x000005c4       0x2c /tmp/cckwxeNr.o
                0x000005c4                main
 .text          0x000005f0        0x0 ../lpc2106_install/lib/extras.o
 .text._GLOBAL__I.49000_ioinit.cxx
                0x000005f0        0x4 ../lpc2106_install/lib/extras.o
 .text.serial_select
                0x000005f4        0x8 ../lpc2106_install/lib/extras.o
 .text.serial_set_config
                0x000005fc       0x1c ../lpc2106_install/lib/extras.o
 .text.serial_rcv_char
                0x00000618       0x64 ../lpc2106_install/lib/extras.o
 .text.serial_xmt_char
                0x0000067c       0xd4 ../lpc2106_install/lib/extras.o
 .text.serial_init
                0x00000750       0xb4 ../lpc2106_install/lib/extras.o
 .text.serial_get_config
                0x00000804      0x2cc ../lpc2106_install/lib/extras.o
 .text.serial_read
                0x00000ad0      0x13c ../lpc2106_install/lib/extras.o
 .text.serial_write
                0x00000c0c      0x184 ../lpc2106_install/lib/extras.o
 .text.tty_init
                0x00000d90       0x14 ../lpc2106_install/lib/extras.o
 .text.tty_lookup
                0x00000da4       0x14 ../lpc2106_install/lib/extras.o
 .text.tty_set_config
                0x00000db8       0x48 ../lpc2106_install/lib/extras.o
 .text.tty_get_config
                0x00000e00       0x54 ../lpc2106_install/lib/extras.o
 .text.tty_select
                0x00000e54        0xc ../lpc2106_install/lib/extras.o
 .text.tty_read
                0x00000e60      0x180 ../lpc2106_install/lib/extras.o
 .text.tty_write
                0x00000fe0       0xf4 ../lpc2106_install/lib/extras.o
 .text.haldiag_init
                0x000010d4        0x8 ../lpc2106_install/lib/extras.o
 .text.haldiag_set_config
                0x000010dc       0x40 ../lpc2106_install/lib/extras.o
 .text.haldiag_getc
                0x0000111c       0x1c ../lpc2106_install/lib/extras.o
 .text.haldiag_putc
                0x00001138       0x1c ../lpc2106_install/lib/extras.o
 .text.cyg_iso_c_start
                0x00001154       0x28 ../lpc2106_install/lib/extras.o
                0x00001154                cyg_iso_c_start
 .text._GLOBAL__I.56100_cyg_iso_c_start
                0x0000117c        0x4 ../lpc2106_install/lib/extras.o
 .text          0x00001180        0x0 ../lpc2106_install/lib/libtarget.a(hal_common_hal_if.o)
 .text.nop_service
                0x00001180        0x8 ../lpc2106_install/lib/libtarget.a(hal_common_hal_if.o)
 .text.set_debug_comm
                0x00001188      0x118 ../lpc2106_install/lib/libtarget.a(hal_common_hal_if.o)
 .text.set_console_comm
                0x000012a0       0x94 ../lpc2106_install/lib/libtarget.a(hal_common_hal_if.o)
 .text.cyg_hal_diag_mangler_gdb_getc
                0x00001334       0x2c ../lpc2106_install/lib/libtarget.a(hal_common_hal_if.o)
 .text.cyg_hal_diag_mangler_gdb_read
                0x00001360       0x4c ../lpc2106_install/lib/libtarget.a(hal_common_hal_if.o)
 .text.cyg_hal_diag_mangler_gdb_init
                0x000013ac       0x8c ../lpc2106_install/lib/libtarget.a(hal_common_hal_if.o)
                0x000013ac                cyg_hal_diag_mangler_gdb_init
 .text.cyg_hal_diag_mangler_null_getc
                0x00001438       0x2c ../lpc2106_install/lib/libtarget.a(hal_common_hal_if.o)
 .text.cyg_hal_diag_mangler_null_putc
                0x00001464       0x2c ../lpc2106_install/lib/libtarget.a(hal_common_hal_if.o)
 .text.cyg_hal_diag_mangler_null_write
                0x00001490       0x4c ../lpc2106_install/lib/libtarget.a(hal_common_hal_if.o)
 .text.cyg_hal_diag_mangler_null_read
                0x000014dc       0x4c ../lpc2106_install/lib/libtarget.a(hal_common_hal_if.o)
 .text.cyg_hal_diag_mangler_null_control
                0x00001528       0x10 ../lpc2106_install/lib/libtarget.a(hal_common_hal_if.o)
 .text.cyg_hal_diag_mangler_null_init
                0x00001538       0x8c ../lpc2106_install/lib/libtarget.a(hal_common_hal_if.o)
                0x00001538                cyg_hal_diag_mangler_null_init
 .text.hal_if_diag_init
                0x000015c4       0x40 ../lpc2106_install/lib/libtarget.a(hal_common_hal_if.o)
                0x000015c4                hal_if_diag_init
 .text.hal_if_diag_read_char
                0x00001604       0x50 ../lpc2106_install/lib/libtarget.a(hal_common_hal_if.o)
                0x00001604                hal_if_diag_read_char
 .text.hal_if_init
                0x00001654       0xd8 ../lpc2106_install/lib/libtarget.a(hal_common_hal_if.o)
                0x00001654                hal_if_init
 .text.delay_us
                0x0000172c       0x88 ../lpc2106_install/lib/libtarget.a(hal_common_hal_if.o)
 .text.reset    0x000017b4       0x14 ../lpc2106_install/lib/libtarget.a(hal_common_hal_if.o)
 .text.hal_if_diag_write_char
                0x000017c8       0x74 ../lpc2106_install/lib/libtarget.a(hal_common_hal_if.o)
                0x000017c8                hal_if_diag_write_char
 .text.cyg_hal_diag_mangler_gdb_flush
                0x0000183c      0x1a8 ../lpc2106_install/lib/libtarget.a(hal_common_hal_if.o)
 .text.cyg_hal_diag_mangler_gdb_control
                0x000019e4       0x2c ../lpc2106_install/lib/libtarget.a(hal_common_hal_if.o)
 .text.cyg_hal_diag_mangler_gdb_putc
                0x00001a10       0x58 ../lpc2106_install/lib/libtarget.a(hal_common_hal_if.o)
 .text.cyg_hal_diag_mangler_gdb_write
                0x00001a68       0x3c ../lpc2106_install/lib/libtarget.a(hal_common_hal_if.o)
 .text          0x00001aa4        0x0 ../lpc2106_install/lib/libtarget.a(hal_common_hal_misc.o)
 .text.cyg_hal_is_break
                0x00001aa4       0x48 ../lpc2106_install/lib/libtarget.a(hal_common_hal_misc.o)
                0x00001aa4                cyg_hal_is_break
 .text.cyg_hal_user_break
                0x00001aec        0x8 ../lpc2106_install/lib/libtarget.a(hal_common_hal_misc.o)
                0x00001aec                cyg_hal_user_break
                0x00001aec                breakinst
 .text.hal_default_isr
                0x00001af4        0x4 ../lpc2106_install/lib/libtarget.a(hal_common_hal_misc.o)
                0x00001af4                hal_default_isr
 .text          0x00001af8        0x0 ../lpc2106_install/lib/libtarget.a(io_common_iosys.o)
 .text.cyg_io_init
                0x00001af8       0x74 ../lpc2106_install/lib/libtarget.a(io_common_iosys.o)
                0x00001af8                cyg_io_init
 .text.cyg_io_lookup
                0x00001b6c      0x104 ../lpc2106_install/lib/libtarget.a(io_common_iosys.o)
                0x00001b6c                cyg_io_lookup
 .text.cyg_io_write
                0x00001c70       0x48 ../lpc2106_install/lib/libtarget.a(io_common_iosys.o)
                0x00001c70                cyg_io_write
 .text.cyg_io_read
                0x00001cb8       0x48 ../lpc2106_install/lib/libtarget.a(io_common_iosys.o)
                0x00001cb8                cyg_io_read
 .text.cyg_io_bwrite
                0x00001d00       0x40 ../lpc2106_install/lib/libtarget.a(io_common_iosys.o)
                0x00001d00                cyg_io_bwrite
 .text.cyg_io_bread
                0x00001d40       0x40 ../lpc2106_install/lib/libtarget.a(io_common_iosys.o)
                0x00001d40                cyg_io_bread
 .text.cyg_io_select
                0x00001d80       0x28 ../lpc2106_install/lib/libtarget.a(io_common_iosys.o)
                0x00001d80                cyg_io_select
 .text.cyg_io_get_config
                0x00001da8       0x40 ../lpc2106_install/lib/libtarget.a(io_common_iosys.o)
                0x00001da8                cyg_io_get_config
 .text.cyg_io_set_config
                0x00001de8       0x40 ../lpc2106_install/lib/libtarget.a(io_common_iosys.o)
                0x00001de8                cyg_io_set_config
 .text.cyg_devio_cwrite
                0x00001e28        0x8 ../lpc2106_install/lib/libtarget.a(io_common_iosys.o)
                0x00001e28                cyg_devio_cwrite
 .text.cyg_devio_cread
                0x00001e30        0x8 ../lpc2106_install/lib/libtarget.a(io_common_iosys.o)
                0x00001e30                cyg_devio_cread
 .text.cyg_devio_bwrite
                0x00001e38        0x8 ../lpc2106_install/lib/libtarget.a(io_common_iosys.o)
                0x00001e38                cyg_devio_bwrite
 .text.cyg_devio_bread
                0x00001e40        0x8 ../lpc2106_install/lib/libtarget.a(io_common_iosys.o)
                0x00001e40                cyg_devio_bread
 .text.cyg_devio_select
                0x00001e48        0x8 ../lpc2106_install/lib/libtarget.a(io_common_iosys.o)
                0x00001e48                cyg_devio_select
 .text.cyg_devio_get_config
                0x00001e50        0x8 ../lpc2106_install/lib/libtarget.a(io_common_iosys.o)
                0x00001e50                cyg_devio_get_config
 .text.cyg_devio_set_config
                0x00001e58        0x8 ../lpc2106_install/lib/libtarget.a(io_common_iosys.o)
                0x00001e58                cyg_devio_set_config
 .text          0x00001e60        0x0 ../lpc2106_install/lib/libtarget.a(infra_startup.o)
 .text.cyg_start
                0x00001e60       0x18 ../lpc2106_install/lib/libtarget.a(infra_startup.o)
                0x00001e60                cyg_start
 .text          0x00001e78        0x0 ../lpc2106_install/lib/libtarget.a(infra_prestart.o)
 .text.cyg_prestart
                0x00001e78        0x4 ../lpc2106_install/lib/libtarget.a(infra_prestart.o)
                0x00001e78                cyg_prestart
 .text          0x00001e7c        0x0 ../lpc2106_install/lib/libtarget.a(infra_pkgstart.o)
 .text.cyg_package_start
                0x00001e7c        0x4 ../lpc2106_install/lib/libtarget.a(infra_pkgstart.o)
                0x00001e7c                cyg_package_start
 .text          0x00001e80        0x0 ../lpc2106_install/lib/libtarget.a(infra_userstart.o)
 .text.cyg_user_start
                0x00001e80        0x4 ../lpc2106_install/lib/libtarget.a(infra_userstart.o)
                0x00001e80                cyg_user_start
 .text          0x00001e84        0x0 ../lpc2106_install/lib/libtarget.a(infra_diag.o)
 .text.diag_init
                0x00001e84        0x4 ../lpc2106_install/lib/libtarget.a(infra_diag.o)
                0x00001e84                diag_init
 .text.diag_init_putc
                0x00001e88       0x10 ../lpc2106_install/lib/libtarget.a(infra_diag.o)
                0x00001e88                diag_init_putc
 .text._ZL4_cvtyPclS_
                0x00001e98       0xd0 ../lpc2106_install/lib/libtarget.a(infra_diag.o)
 .text._ZL6_sputccPPv
                0x00001f68       0x3c ../lpc2106_install/lib/libtarget.a(infra_diag.o)
 .text.diag_vdump_buf_with_offset
                0x00001fa4      0x144 ../lpc2106_install/lib/libtarget.a(infra_diag.o)
                0x00001fa4                diag_vdump_buf_with_offset
 .text.diag_dump_buf_with_offset
                0x000020e8       0x1c ../lpc2106_install/lib/libtarget.a(infra_diag.o)
                0x000020e8                diag_dump_buf_with_offset
 .text.diag_dump_buf
                0x00002104        0x8 ../lpc2106_install/lib/libtarget.a(infra_diag.o)
                0x00002104                diag_dump_buf
 .text._GLOBAL__I.10100_diag_write_char
                0x0000210c        0x4 ../lpc2106_install/lib/libtarget.a(infra_diag.o)
 .text.diag_write_char
                0x00002110       0x28 ../lpc2106_install/lib/libtarget.a(infra_diag.o)
                0x00002110                diag_write_char
 .text._ZL16_diag_write_charcPPv
                0x00002138        0x4 ../lpc2106_install/lib/libtarget.a(infra_diag.o)
 .text.diag_write_long_num
                0x0000213c      0x11c ../lpc2106_install/lib/libtarget.a(infra_diag.o)
                0x0000213c                diag_write_long_num
 .text.diag_write_num
                0x00002258       0x30 ../lpc2106_install/lib/libtarget.a(infra_diag.o)
                0x00002258                diag_write_num
 .text.diag_write_hex
                0x00002288       0x28 ../lpc2106_install/lib/libtarget.a(infra_diag.o)
                0x00002288                diag_write_hex
 .text.diag_write_dec
                0x000022b0       0x34 ../lpc2106_install/lib/libtarget.a(infra_diag.o)
                0x000022b0                diag_write_dec
 .text.diag_write_string
                0x000022e4       0x2c ../lpc2106_install/lib/libtarget.a(infra_diag.o)
                0x000022e4                diag_write_string
 .text._ZL8_vprintfPFvcPPvES0_PKcS_
                0x00002310      0xb38 ../lpc2106_install/lib/libtarget.a(infra_diag.o)
 .text.diag_vprintf
                0x00002e48       0x1c ../lpc2106_install/lib/libtarget.a(infra_diag.o)
                0x00002e48                diag_vprintf
 .text.diag_printf
                0x00002e64       0x38 ../lpc2106_install/lib/libtarget.a(infra_diag.o)
                0x00002e64                diag_printf
 .text.diag_dump_buf_with_offset_16bit
                0x00002e9c       0xe8 ../lpc2106_install/lib/libtarget.a(infra_diag.o)
                0x00002e9c                diag_dump_buf_with_offset_16bit
 .text.diag_dump_buf_16bit
                0x00002f84        0x8 ../lpc2106_install/lib/libtarget.a(infra_diag.o)
                0x00002f84                diag_dump_buf_16bit
 .text.diag_dump_buf_with_offset_32bit
                0x00002f8c       0xc8 ../lpc2106_install/lib/libtarget.a(infra_diag.o)
                0x00002f8c                diag_dump_buf_with_offset_32bit
 .text.diag_dump_buf_32bit
                0x00003054        0x8 ../lpc2106_install/lib/libtarget.a(infra_diag.o)
                0x00003054                diag_dump_buf_32bit
 .text.diag_vsprintf
                0x0000305c       0x40 ../lpc2106_install/lib/libtarget.a(infra_diag.o)
                0x0000305c                diag_vsprintf
 .text.diag_snprintf
                0x0000309c       0x4c ../lpc2106_install/lib/libtarget.a(infra_diag.o)
                0x0000309c                diag_snprintf
 .text.diag_sprintf
                0x000030e8       0x4c ../lpc2106_install/lib/libtarget.a(infra_diag.o)
                0x000030e8                diag_sprintf
 .text          0x00003134        0x0 ../lpc2106_install/lib/libtarget.a(kernel_kapi.o)
 .text.cyg_scheduler_lock
                0x00003134       0x18 ../lpc2106_install/lib/libtarget.a(kernel_kapi.o)
                0x00003134                cyg_scheduler_lock
 .text.cyg_scheduler_read_lock
                0x0000314c       0x10 ../lpc2106_install/lib/libtarget.a(kernel_kapi.o)
                0x0000314c                cyg_scheduler_read_lock
 .text.cyg_thread_self
                0x0000315c       0x10 ../lpc2106_install/lib/libtarget.a(kernel_kapi.o)
                0x0000315c                cyg_thread_self
 .text.cyg_thread_get_id
                0x0000316c        0x8 ../lpc2106_install/lib/libtarget.a(kernel_kapi.o)
                0x0000316c                cyg_thread_get_id
 .text.cyg_thread_idle_thread
                0x00003174        0xc ../lpc2106_install/lib/libtarget.a(kernel_kapi.o)
                0x00003174                cyg_thread_idle_thread
 .text.cyg_thread_get_priority
                0x00003180       0x14 ../lpc2106_install/lib/libtarget.a(kernel_kapi.o)
                0x00003180                cyg_thread_get_priority
 .text.cyg_thread_get_current_priority
                0x00003194        0x8 ../lpc2106_install/lib/libtarget.a(kernel_kapi.o)
                0x00003194                cyg_thread_get_current_priority
 .text.cyg_thread_deadline_wait
                0x0000319c        0x4 ../lpc2106_install/lib/libtarget.a(kernel_kapi.o)
                0x0000319c                cyg_thread_deadline_wait
 .text.cyg_thread_get_stack_base
                0x000031a0        0x8 ../lpc2106_install/lib/libtarget.a(kernel_kapi.o)
                0x000031a0                cyg_thread_get_stack_base
 .text.cyg_thread_get_stack_size
                0x000031a8        0x8 ../lpc2106_install/lib/libtarget.a(kernel_kapi.o)
                0x000031a8                cyg_thread_get_stack_size
 .text.cyg_thread_get_data
                0x000031b0       0x20 ../lpc2106_install/lib/libtarget.a(kernel_kapi.o)
                0x000031b0                cyg_thread_get_data
 .text.cyg_thread_get_data_ptr
                0x000031d0       0x20 ../lpc2106_install/lib/libtarget.a(kernel_kapi.o)
                0x000031d0                cyg_thread_get_data_ptr
 .text.cyg_thread_set_data
                0x000031f0       0x20 ../lpc2106_install/lib/libtarget.a(kernel_kapi.o)
                0x000031f0                cyg_thread_set_data
 .text.cyg_interrupt_set_cpu
                0x00003210        0x4 ../lpc2106_install/lib/libtarget.a(kernel_kapi.o)
                0x00003210                cyg_interrupt_set_cpu
 .text.cyg_interrupt_get_cpu
                0x00003214        0x8 ../lpc2106_install/lib/libtarget.a(kernel_kapi.o)
                0x00003214                cyg_interrupt_get_cpu
 .text.cyg_counter_current_value
                0x0000321c       0x1c ../lpc2106_install/lib/libtarget.a(kernel_kapi.o)
                0x0000321c                cyg_counter_current_value
 .text.cyg_counter_set_value
                0x00003238        0xc ../lpc2106_install/lib/libtarget.a(kernel_kapi.o)
                0x00003238                cyg_counter_set_value
 .text.cyg_clock_to_counter
                0x00003244        0x8 ../lpc2106_install/lib/libtarget.a(kernel_kapi.o)
                0x00003244                cyg_clock_to_counter
 .text.cyg_clock_set_resolution
                0x0000324c       0x18 ../lpc2106_install/lib/libtarget.a(kernel_kapi.o)
                0x0000324c                cyg_clock_set_resolution
 .text.cyg_clock_get_resolution
                0x00003264       0x14 ../lpc2106_install/lib/libtarget.a(kernel_kapi.o)
                0x00003264                cyg_clock_get_resolution
 .text.cyg_real_time_clock
                0x00003278       0x10 ../lpc2106_install/lib/libtarget.a(kernel_kapi.o)
                0x00003278                cyg_real_time_clock
 .text.cyg_current_time
                0x00003288       0x28 ../lpc2106_install/lib/libtarget.a(kernel_kapi.o)
                0x00003288                cyg_current_time
 .text.cyg_mbox_peek
                0x000032b0        0x8 ../lpc2106_install/lib/libtarget.a(kernel_kapi.o)
                0x000032b0                cyg_mbox_peek
 .text.cyg_mbox_waiting_to_get
                0x000032b8       0x10 ../lpc2106_install/lib/libtarget.a(kernel_kapi.o)
                0x000032b8                cyg_mbox_waiting_to_get
 .text.cyg_mbox_waiting_to_put
                0x000032c8       0x10 ../lpc2106_install/lib/libtarget.a(kernel_kapi.o)
                0x000032c8                cyg_mbox_waiting_to_put
 .text.cyg_flag_peek
                0x000032d8        0x8 ../lpc2106_install/lib/libtarget.a(kernel_kapi.o)
                0x000032d8                cyg_flag_peek
 .text.cyg_flag_waiting
                0x000032e0       0x10 ../lpc2106_install/lib/libtarget.a(kernel_kapi.o)
                0x000032e0                cyg_flag_waiting
 .text.cyg_spinlock_init
                0x000032f0       0x18 ../lpc2106_install/lib/libtarget.a(kernel_kapi.o)
                0x000032f0                cyg_spinlock_init
 .text.cyg_spinlock_destroy
                0x00003308        0x4 ../lpc2106_install/lib/libtarget.a(kernel_kapi.o)
                0x00003308                cyg_spinlock_destroy
 .text.cyg_spinlock_spin
                0x0000330c        0xc ../lpc2106_install/lib/libtarget.a(kernel_kapi.o)
                0x0000330c                cyg_spinlock_spin
 .text.cyg_spinlock_clear
                0x00003318        0xc ../lpc2106_install/lib/libtarget.a(kernel_kapi.o)
                0x00003318                cyg_spinlock_clear
 .text.cyg_spinlock_try
                0x00003324       0x1c ../lpc2106_install/lib/libtarget.a(kernel_kapi.o)
                0x00003324                cyg_spinlock_try
 .text.cyg_spinlock_test
                0x00003340        0x8 ../lpc2106_install/lib/libtarget.a(kernel_kapi.o)
                0x00003340                cyg_spinlock_test
 .text.cyg_spinlock_spin_intsave
                0x00003348       0x28 ../lpc2106_install/lib/libtarget.a(kernel_kapi.o)
                0x00003348                cyg_spinlock_spin_intsave
 .text.cyg_spinlock_clear_intsave
                0x00003370       0x28 ../lpc2106_install/lib/libtarget.a(kernel_kapi.o)
                0x00003370                cyg_spinlock_clear_intsave
 .text.cyg_cond_timed_wait
                0x00003398        0x8 ../lpc2106_install/lib/libtarget.a(kernel_kapi.o)
                0x00003398                cyg_cond_timed_wait
 .text.cyg_cond_broadcast
                0x000033a0        0x4 ../lpc2106_install/lib/libtarget.a(kernel_kapi.o)
                0x000033a0                cyg_cond_broadcast
 .text.cyg_cond_signal
                0x000033a4        0x4 ../lpc2106_install/lib/libtarget.a(kernel_kapi.o)
                0x000033a4                cyg_cond_signal
 .text.cyg_cond_wait
                0x000033a8        0x8 ../lpc2106_install/lib/libtarget.a(kernel_kapi.o)
                0x000033a8                cyg_cond_wait
 .text.cyg_cond_destroy
                0x000033b0        0x4 ../lpc2106_install/lib/libtarget.a(kernel_kapi.o)
                0x000033b0                cyg_cond_destroy
 .text.cyg_cond_init
                0x000033b4        0x4 ../lpc2106_install/lib/libtarget.a(kernel_kapi.o)
                0x000033b4                cyg_cond_init
 .text.cyg_mutex_set_protocol
                0x000033b8        0x4 ../lpc2106_install/lib/libtarget.a(kernel_kapi.o)
                0x000033b8                cyg_mutex_set_protocol
 .text.cyg_mutex_set_ceiling
                0x000033bc        0x4 ../lpc2106_install/lib/libtarget.a(kernel_kapi.o)
                0x000033bc                cyg_mutex_set_ceiling
 .text.cyg_mutex_release
                0x000033c0        0x4 ../lpc2106_install/lib/libtarget.a(kernel_kapi.o)
                0x000033c0                cyg_mutex_release
 .text.cyg_mutex_unlock
                0x000033c4        0x4 ../lpc2106_install/lib/libtarget.a(kernel_kapi.o)
                0x000033c4                cyg_mutex_unlock
 .text.cyg_mutex_trylock
                0x000033c8        0x4 ../lpc2106_install/lib/libtarget.a(kernel_kapi.o)
                0x000033c8                cyg_mutex_trylock
 .text.cyg_mutex_lock
                0x000033cc        0x4 ../lpc2106_install/lib/libtarget.a(kernel_kapi.o)
                0x000033cc                cyg_mutex_lock
 .text.cyg_mutex_destroy
                0x000033d0        0x4 ../lpc2106_install/lib/libtarget.a(kernel_kapi.o)
                0x000033d0                cyg_mutex_destroy
 .text.cyg_mutex_init
                0x000033d4        0x4 ../lpc2106_install/lib/libtarget.a(kernel_kapi.o)
                0x000033d4                cyg_mutex_init
 .text.cyg_flag_poll
                0x000033d8       0x1c ../lpc2106_install/lib/libtarget.a(kernel_kapi.o)
                0x000033d8                cyg_flag_poll
 .text.cyg_flag_timed_wait
                0x000033f4       0x2c ../lpc2106_install/lib/libtarget.a(kernel_kapi.o)
                0x000033f4                cyg_flag_timed_wait
 .text.cyg_flag_wait
                0x00003420       0x1c ../lpc2106_install/lib/libtarget.a(kernel_kapi.o)
                0x00003420                cyg_flag_wait
 .text.cyg_flag_maskbits
                0x0000343c        0x4 ../lpc2106_install/lib/libtarget.a(kernel_kapi.o)
                0x0000343c                cyg_flag_maskbits
 .text.cyg_flag_setbits
                0x00003440        0x4 ../lpc2106_install/lib/libtarget.a(kernel_kapi.o)
                0x00003440                cyg_flag_setbits
 .text.cyg_flag_destroy
                0x00003444        0x4 ../lpc2106_install/lib/libtarget.a(kernel_kapi.o)
                0x00003444                cyg_flag_destroy
 .text.cyg_flag_init
                0x00003448        0x8 ../lpc2106_install/lib/libtarget.a(kernel_kapi.o)
                0x00003448                cyg_flag_init
 .text.cyg_semaphore_peek
                0x00003450       0x14 ../lpc2106_install/lib/libtarget.a(kernel_kapi.o)
                0x00003450                cyg_semaphore_peek
 .text.cyg_semaphore_post
                0x00003464        0x4 ../lpc2106_install/lib/libtarget.a(kernel_kapi.o)
                0x00003464                cyg_semaphore_post
 .text.cyg_semaphore_trywait
                0x00003468        0x4 ../lpc2106_install/lib/libtarget.a(kernel_kapi.o)
                0x00003468                cyg_semaphore_trywait
 .text.cyg_semaphore_timed_wait
                0x0000346c        0x4 ../lpc2106_install/lib/libtarget.a(kernel_kapi.o)
                0x0000346c                cyg_semaphore_timed_wait
 .text.cyg_semaphore_wait
                0x00003470        0x4 ../lpc2106_install/lib/libtarget.a(kernel_kapi.o)
                0x00003470                cyg_semaphore_wait
 .text.cyg_semaphore_destroy
                0x00003474        0x4 ../lpc2106_install/lib/libtarget.a(kernel_kapi.o)
                0x00003474                cyg_semaphore_destroy
 .text.cyg_semaphore_init
                0x00003478        0x4 ../lpc2106_install/lib/libtarget.a(kernel_kapi.o)
                0x00003478                cyg_semaphore_init
 .text.cyg_mbox_tryput
                0x0000347c        0x4 ../lpc2106_install/lib/libtarget.a(kernel_kapi.o)
                0x0000347c                cyg_mbox_tryput
 .text.cyg_mbox_timed_put
                0x00003480        0x4 ../lpc2106_install/lib/libtarget.a(kernel_kapi.o)
                0x00003480                cyg_mbox_timed_put
 .text.cyg_mbox_put
                0x00003484        0x4 ../lpc2106_install/lib/libtarget.a(kernel_kapi.o)
                0x00003484                cyg_mbox_put
 .text.cyg_mbox_peek_item
                0x00003488        0x4 ../lpc2106_install/lib/libtarget.a(kernel_kapi.o)
                0x00003488                cyg_mbox_peek_item
 .text.cyg_mbox_tryget
                0x0000348c        0x4 ../lpc2106_install/lib/libtarget.a(kernel_kapi.o)
                0x0000348c                cyg_mbox_tryget
 .text.cyg_mbox_timed_get
                0x00003490        0x4 ../lpc2106_install/lib/libtarget.a(kernel_kapi.o)
                0x00003490                cyg_mbox_timed_get
 .text.cyg_mbox_get
                0x00003494        0x4 ../lpc2106_install/lib/libtarget.a(kernel_kapi.o)
                0x00003494                cyg_mbox_get
 .text.cyg_mbox_delete
                0x00003498        0x4 ../lpc2106_install/lib/libtarget.a(kernel_kapi.o)
                0x00003498                cyg_mbox_delete
 .text.cyg_mbox_create
                0x0000349c       0x24 ../lpc2106_install/lib/libtarget.a(kernel_kapi.o)
                0x0000349c                cyg_mbox_create
 .text.cyg_alarm_disable
                0x000034c0        0x4 ../lpc2106_install/lib/libtarget.a(kernel_kapi.o)
                0x000034c0                cyg_alarm_disable
 .text.cyg_alarm_enable
                0x000034c4        0x4 ../lpc2106_install/lib/libtarget.a(kernel_kapi.o)
                0x000034c4                cyg_alarm_enable
 .text.cyg_alarm_get_times
                0x000034c8        0x4 ../lpc2106_install/lib/libtarget.a(kernel_kapi.o)
                0x000034c8                cyg_alarm_get_times
 .text.cyg_alarm_initialize
                0x000034cc        0x4 ../lpc2106_install/lib/libtarget.a(kernel_kapi.o)
                0x000034cc                cyg_alarm_initialize
 .text.cyg_alarm_delete
                0x000034d0        0x4 ../lpc2106_install/lib/libtarget.a(kernel_kapi.o)
                0x000034d0                cyg_alarm_delete
 .text.cyg_alarm_create
                0x000034d4       0x38 ../lpc2106_install/lib/libtarget.a(kernel_kapi.o)
                0x000034d4                cyg_alarm_create
 .text.cyg_clock_delete
                0x0000350c        0x4 ../lpc2106_install/lib/libtarget.a(kernel_kapi.o)
                0x0000350c                cyg_clock_delete
 .text.cyg_clock_create
                0x00003510       0x38 ../lpc2106_install/lib/libtarget.a(kernel_kapi.o)
                0x00003510                cyg_clock_create
 .text.cyg_counter_multi_tick
                0x00003548        0x8 ../lpc2106_install/lib/libtarget.a(kernel_kapi.o)
                0x00003548                cyg_counter_multi_tick
 .text.cyg_counter_tick
                0x00003550        0x8 ../lpc2106_install/lib/libtarget.a(kernel_kapi.o)
                0x00003550                cyg_counter_tick
 .text.cyg_counter_delete
                0x00003558        0x4 ../lpc2106_install/lib/libtarget.a(kernel_kapi.o)
                0x00003558                cyg_counter_delete
 .text.cyg_counter_create
                0x0000355c       0x28 ../lpc2106_install/lib/libtarget.a(kernel_kapi.o)
                0x0000355c                cyg_counter_create
 .text.cyg_interrupt_configure
                0x00003584        0x4 ../lpc2106_install/lib/libtarget.a(kernel_kapi.o)
                0x00003584                cyg_interrupt_configure
 .text.cyg_interrupt_acknowledge
                0x00003588        0x4 ../lpc2106_install/lib/libtarget.a(kernel_kapi.o)
                0x00003588                cyg_interrupt_acknowledge
 .text.cyg_interrupt_unmask_intunsafe
                0x0000358c        0x4 ../lpc2106_install/lib/libtarget.a(kernel_kapi.o)
                0x0000358c                cyg_interrupt_unmask_intunsafe
 .text.cyg_interrupt_unmask
                0x00003590        0x4 ../lpc2106_install/lib/libtarget.a(kernel_kapi.o)
                0x00003590                cyg_interrupt_unmask
 .text.cyg_interrupt_mask_intunsafe
                0x00003594        0x4 ../lpc2106_install/lib/libtarget.a(kernel_kapi.o)
                0x00003594                cyg_interrupt_mask_intunsafe
 .text.cyg_interrupt_mask
                0x00003598        0x4 ../lpc2106_install/lib/libtarget.a(kernel_kapi.o)
                0x00003598                cyg_interrupt_mask
 .text.cyg_interrupt_enable
                0x0000359c        0x4 ../lpc2106_install/lib/libtarget.a(kernel_kapi.o)
                0x0000359c                cyg_interrupt_enable
 .text.cyg_interrupt_disable
                0x000035a0        0x4 ../lpc2106_install/lib/libtarget.a(kernel_kapi.o)
                0x000035a0                cyg_interrupt_disable
 .text.cyg_interrupt_set_vsr
                0x000035a4        0x8 ../lpc2106_install/lib/libtarget.a(kernel_kapi.o)
                0x000035a4                cyg_interrupt_set_vsr
 .text.cyg_interrupt_get_vsr
                0x000035ac        0x4 ../lpc2106_install/lib/libtarget.a(kernel_kapi.o)
                0x000035ac                cyg_interrupt_get_vsr
 .text.cyg_interrupt_detach
                0x000035b0        0x4 ../lpc2106_install/lib/libtarget.a(kernel_kapi.o)
                0x000035b0                cyg_interrupt_detach
 .text.cyg_interrupt_attach
                0x000035b4        0x4 ../lpc2106_install/lib/libtarget.a(kernel_kapi.o)
                0x000035b4                cyg_interrupt_attach
 .text.cyg_interrupt_delete
                0x000035b8        0x4 ../lpc2106_install/lib/libtarget.a(kernel_kapi.o)
                0x000035b8                cyg_interrupt_delete
 .text.cyg_interrupt_create
                0x000035bc       0x44 ../lpc2106_install/lib/libtarget.a(kernel_kapi.o)
                0x000035bc                cyg_interrupt_create
 .text.cyg_exception_call_handler
                0x00003600        0x4 ../lpc2106_install/lib/libtarget.a(kernel_kapi.o)
                0x00003600                cyg_exception_call_handler
 .text.cyg_exception_clear_handler
                0x00003604       0x1c ../lpc2106_install/lib/libtarget.a(kernel_kapi.o)
                0x00003604                cyg_exception_clear_handler
 .text.cyg_exception_set_handler
                0x00003620       0x48 ../lpc2106_install/lib/libtarget.a(kernel_kapi.o)
                0x00003620                cyg_exception_set_handler
 .text.cyg_thread_free_data_index
                0x00003668        0x4 ../lpc2106_install/lib/libtarget.a(kernel_kapi.o)
                0x00003668                cyg_thread_free_data_index
 .text.cyg_thread_new_data_index
                0x0000366c        0x4 ../lpc2106_install/lib/libtarget.a(kernel_kapi.o)
                0x0000366c                cyg_thread_new_data_index
 .text.cyg_scheduler_unlock
                0x00003670       0x40 ../lpc2106_install/lib/libtarget.a(kernel_kapi.o)
                0x00003670                cyg_scheduler_unlock
 .text.cyg_thread_delay
                0x000036b0       0x1c ../lpc2106_install/lib/libtarget.a(kernel_kapi.o)
                0x000036b0                cyg_thread_delay
 .text.cyg_thread_set_priority
                0x000036cc        0x4 ../lpc2106_install/lib/libtarget.a(kernel_kapi.o)
                0x000036cc                cyg_thread_set_priority
 .text.cyg_thread_yield
                0x000036d0       0x14 ../lpc2106_install/lib/libtarget.a(kernel_kapi.o)
                0x000036d0                cyg_thread_yield
 .text.cyg_thread_release
                0x000036e4        0x4 ../lpc2106_install/lib/libtarget.a(kernel_kapi.o)
                0x000036e4                cyg_thread_release
 .text.cyg_thread_kill
                0x000036e8        0x4 ../lpc2106_install/lib/libtarget.a(kernel_kapi.o)
                0x000036e8                cyg_thread_kill
 .text.cyg_thread_resume
                0x000036ec       0x28 ../lpc2106_install/lib/libtarget.a(kernel_kapi.o)
                0x000036ec                cyg_thread_resume
 .text.cyg_thread_suspend
                0x00003714        0x4 ../lpc2106_install/lib/libtarget.a(kernel_kapi.o)
                0x00003714                cyg_thread_suspend
 .text.cyg_thread_delete
                0x00003718       0x3c ../lpc2106_install/lib/libtarget.a(kernel_kapi.o)
                0x00003718                cyg_thread_delete
 .text.cyg_thread_exit
                0x00003754        0x4 ../lpc2106_install/lib/libtarget.a(kernel_kapi.o)
                0x00003754                cyg_thread_exit
 .text.cyg_thread_create
                0x00003758       0x4c ../lpc2106_install/lib/libtarget.a(kernel_kapi.o)
                0x00003758                cyg_thread_create
 .text.cyg_scheduler_start
                0x000037a4        0x4 ../lpc2106_install/lib/libtarget.a(kernel_kapi.o)
                0x000037a4                cyg_scheduler_start
 .text.cyg_thread_get_next
                0x000037a8       0xd8 ../lpc2106_install/lib/libtarget.a(kernel_kapi.o)
                0x000037a8                cyg_thread_get_next
 .text.cyg_thread_get_info
                0x00003880       0xc8 ../lpc2106_install/lib/libtarget.a(kernel_kapi.o)
                0x00003880                cyg_thread_get_info
 .text.cyg_thread_find
                0x00003948       0xa4 ../lpc2106_install/lib/libtarget.a(kernel_kapi.o)
                0x00003948                cyg_thread_find
 .text.cyg_scheduler_safe_lock
                0x000039ec       0x48 ../lpc2106_install/lib/libtarget.a(kernel_kapi.o)
                0x000039ec                cyg_scheduler_safe_lock
 .text          0x00003a34        0x0 ../lpc2106_install/lib/libtarget.a(kernel_thread.o)
 .text._Z16idle_thread_mainj
                0x00003a34       0x18 ../lpc2106_install/lib/libtarget.a(kernel_thread.o)
                0x00003a34                _Z16idle_thread_mainj
 .text._ZN10Cyg_Thread17deliver_exceptionEij
                0x00003a4c       0x20 ../lpc2106_install/lib/libtarget.a(kernel_thread.o)
                0x00003a4c                _ZN10Cyg_Thread17deliver_exceptionEij
 .text._ZN10Cyg_Thread4exitEv
                0x00003a6c       0x68 ../lpc2106_install/lib/libtarget.a(kernel_thread.o)
                0x00003a6c                _ZN10Cyg_Thread4exitEv
 .text._ZN18Cyg_HardwareThread12thread_entryEP10Cyg_Thread
                0x00003ad4       0x2c ../lpc2106_install/lib/libtarget.a(kernel_thread.o)
                0x00003ad4                _ZN18Cyg_HardwareThread12thread_entryEP10Cyg_Thread
 .text._ZN10Cyg_Thread15free_data_indexEi
                0x00003b00       0x54 ../lpc2106_install/lib/libtarget.a(kernel_thread.o)
                0x00003b00                _ZN10Cyg_Thread15free_data_indexEi
 .text._ZN10Cyg_Thread19cancel_counted_wakeEv
                0x00003b54       0x48 ../lpc2106_install/lib/libtarget.a(kernel_thread.o)
                0x00003b54                _ZN10Cyg_Thread19cancel_counted_wakeEv
 .text._ZN10Cyg_ThreadC1EjPFvjEjPcjj
                0x00003b9c      0x1a0 ../lpc2106_install/lib/libtarget.a(kernel_thread.o)
                0x00003b9c                _ZN10Cyg_ThreadC1EjPFvjEjPcjj
 .text._ZN10Cyg_Thread12reinitializeEv
                0x00003d3c       0x64 ../lpc2106_install/lib/libtarget.a(kernel_thread.o)
                0x00003d3c                _ZN10Cyg_Thread12reinitializeEv
 .text._ZN10Cyg_Thread7suspendEv
                0x00003da0       0x78 ../lpc2106_install/lib/libtarget.a(kernel_thread.o)
                0x00003da0                _ZN10Cyg_Thread7suspendEv
 .text._ZN10Cyg_Thread5sleepEv
                0x00003e18       0x74 ../lpc2106_install/lib/libtarget.a(kernel_thread.o)
                0x00003e18                _ZN10Cyg_Thread5sleepEv
 .text._ZN10Cyg_Thread5delayEy
                0x00003e8c       0xc8 ../lpc2106_install/lib/libtarget.a(kernel_thread.o)
                0x00003e8c                _ZN10Cyg_Thread5delayEy
 .text._ZN10Cyg_Thread13counted_sleepEy
                0x00003f54      0x110 ../lpc2106_install/lib/libtarget.a(kernel_thread.o)
                0x00003f54                _ZN10Cyg_Thread13counted_sleepEy
 .text._ZN10Cyg_Thread13counted_sleepEv
                0x00004064       0xb4 ../lpc2106_install/lib/libtarget.a(kernel_thread.o)
                0x00004064                _ZN10Cyg_Thread13counted_sleepEv
 .text._ZN10Cyg_Thread12force_resumeEv
                0x00004118       0x74 ../lpc2106_install/lib/libtarget.a(kernel_thread.o)
                0x00004118                _ZN10Cyg_Thread12force_resumeEv
 .text._ZN10Cyg_Thread6resumeEv
                0x0000418c       0x80 ../lpc2106_install/lib/libtarget.a(kernel_thread.o)
                0x0000418c                _ZN10Cyg_Thread6resumeEv
 .text._ZN10Cyg_Thread4wakeEv
                0x0000420c       0x94 ../lpc2106_install/lib/libtarget.a(kernel_thread.o)
                0x0000420c                _ZN10Cyg_Thread4wakeEv
 .text._ZN10Cyg_Thread12counted_wakeEv
                0x000042a0       0x64 ../lpc2106_install/lib/libtarget.a(kernel_thread.o)
                0x000042a0                _ZN10Cyg_Thread12counted_wakeEv
 .text._ZN10Cyg_Thread12set_priorityEi
                0x00004304      0x14c ../lpc2106_install/lib/libtarget.a(kernel_thread.o)
                0x00004304                _ZN10Cyg_Thread12set_priorityEi
 .text._ZN10Cyg_ThreadD1Ev
                0x00004450       0xc8 ../lpc2106_install/lib/libtarget.a(kernel_thread.o)
                0x00004450                _ZN10Cyg_ThreadD1Ev
 .text._ZN10Cyg_ThreadD2Ev
                0x00004518       0xc8 ../lpc2106_install/lib/libtarget.a(kernel_thread.o)
                0x00004518                _ZN10Cyg_ThreadD2Ev
 .text._ZN10Cyg_Thread4killEv
                0x000045e0       0xf8 ../lpc2106_install/lib/libtarget.a(kernel_thread.o)
                0x000045e0                _ZN10Cyg_Thread4killEv
 .text._ZN10Cyg_ThreadC2EjPFvjEjPcjj
                0x000046d8      0x1a0 ../lpc2106_install/lib/libtarget.a(kernel_thread.o)
                0x000046d8                _ZN10Cyg_ThreadC2EjPFvjEjPcjj
 .text._ZN14Cyg_IdleThreadC1Ev
                0x00004878       0x9c ../lpc2106_install/lib/libtarget.a(kernel_thread.o)
                0x00004878                _ZN14Cyg_IdleThreadC1Ev
 .text._Z41__static_initialization_and_destruction_0ii
                0x00004914       0x44 ../lpc2106_install/lib/libtarget.a(kernel_thread.o)
 .text._GLOBAL__D.11100__ZN18Cyg_HardwareThread12thread_entryEP10Cyg_Thread
                0x00004958       0x10 ../lpc2106_install/lib/libtarget.a(kernel_thread.o)
 .text._GLOBAL__I.11100__ZN18Cyg_HardwareThread12thread_entryEP10Cyg_Thread
                0x00004968       0x10 ../lpc2106_install/lib/libtarget.a(kernel_thread.o)
 .text._ZN14Cyg_IdleThreadC2Ev
                0x00004978       0x9c ../lpc2106_install/lib/libtarget.a(kernel_thread.o)
                0x00004978                _ZN14Cyg_IdleThreadC2Ev
 .text._ZN10Cyg_Thread14new_data_indexEv
                0x00004a14       0x78 ../lpc2106_install/lib/libtarget.a(kernel_thread.o)
                0x00004a14                _ZN10Cyg_Thread14new_data_indexEv
 .text._ZN10Cyg_Thread7releaseEv
                0x00004a8c       0x7c ../lpc2106_install/lib/libtarget.a(kernel_thread.o)
                0x00004a8c                _ZN10Cyg_Thread7releaseEv
 .text._ZN15Cyg_ThreadTimer5alarmEP9Cyg_Alarmj
                0x00004b08       0x94 ../lpc2106_install/lib/libtarget.a(kernel_thread.o)
                0x00004b08                _ZN15Cyg_ThreadTimer5alarmEP9Cyg_Alarmj
 .text          0x00004b9c        0x0 ../lpc2106_install/lib/libtarget.a(kernel_except.o)
 .text._Z26cyg_null_exception_handlerjij
                0x00004b9c        0x4 ../lpc2106_install/lib/libtarget.a(kernel_except.o)
                0x00004b9c                _Z26cyg_null_exception_handlerjij
 .text._ZN21Cyg_Exception_ControlC2Ev
                0x00004ba0       0x14 ../lpc2106_install/lib/libtarget.a(kernel_except.o)
                0x00004ba0                _ZN21Cyg_Exception_ControlC2Ev
 .text._ZN21Cyg_Exception_ControlC1Ev
                0x00004bb4       0x14 ../lpc2106_install/lib/libtarget.a(kernel_except.o)
                0x00004bb4                _ZN21Cyg_Exception_ControlC1Ev
 .text._ZN21Cyg_Exception_Control18register_exceptionEiPFvjijEjPS1_Pj
                0x00004bc8       0x38 ../lpc2106_install/lib/libtarget.a(kernel_except.o)
                0x00004bc8                _ZN21Cyg_Exception_Control18register_exceptionEiPFvjijEjPS1_Pj
 .text._ZN21Cyg_Exception_Control20deregister_exceptionEi
                0x00004c00       0x14 ../lpc2106_install/lib/libtarget.a(kernel_except.o)
                0x00004c00                _ZN21Cyg_Exception_Control20deregister_exceptionEi
 .text._ZN21Cyg_Exception_Control17deliver_exceptionEij
                0x00004c14       0x20 ../lpc2106_install/lib/libtarget.a(kernel_except.o)
                0x00004c14                _ZN21Cyg_Exception_Control17deliver_exceptionEij
 .text._GLOBAL__I.12000__Z26cyg_null_exception_handlerjij
                0x00004c34       0x1c ../lpc2106_install/lib/libtarget.a(kernel_except.o)
 .text.cyg_hal_deliver_exception
                0x00004c50       0x28 ../lpc2106_install/lib/libtarget.a(kernel_except.o)
                0x00004c50                cyg_hal_deliver_exception
 .text          0x00004c78        0x0 ../lpc2106_install/lib/libtarget.a(kernel_intr.o)
 .text._ZN13Cyg_InterruptC2EjijPFjjjEPFvjjjE
                0x00004c78       0x30 ../lpc2106_install/lib/libtarget.a(kernel_intr.o)
                0x00004c78                _ZN13Cyg_InterruptC2EjijPFjjjEPFvjjjE
 .text._ZN13Cyg_InterruptC1EjijPFjjjEPFvjjjE
                0x00004ca8       0x30 ../lpc2106_install/lib/libtarget.a(kernel_intr.o)
                0x00004ca8                _ZN13Cyg_InterruptC1EjijPFjjjEPFvjjjE
 .text._ZN13Cyg_InterruptD2Ev
                0x00004cd8       0x50 ../lpc2106_install/lib/libtarget.a(kernel_intr.o)
                0x00004cd8                _ZN13Cyg_InterruptD2Ev
 .text._ZN13Cyg_InterruptD1Ev
                0x00004d28       0x50 ../lpc2106_install/lib/libtarget.a(kernel_intr.o)
                0x00004d28                _ZN13Cyg_InterruptD1Ev
 .text._ZN13Cyg_Interrupt23call_pending_DSRs_innerEv
                0x00004d78       0x8c ../lpc2106_install/lib/libtarget.a(kernel_intr.o)
                0x00004d78                _ZN13Cyg_Interrupt23call_pending_DSRs_innerEv
 .text.cyg_interrupt_call_pending_DSRs
                0x00004e04        0x4 ../lpc2106_install/lib/libtarget.a(kernel_intr.o)
                0x00004e04                cyg_interrupt_call_pending_DSRs
 .text._ZN13Cyg_Interrupt8post_dsrEv
                0x00004e08       0x68 ../lpc2106_install/lib/libtarget.a(kernel_intr.o)
                0x00004e08                _ZN13Cyg_Interrupt8post_dsrEv
 .text.cyg_interrupt_post_dsr
                0x00004e70       0x68 ../lpc2106_install/lib/libtarget.a(kernel_intr.o)
                0x00004e70                cyg_interrupt_post_dsr
 .text._ZN13Cyg_Interrupt6detachEv
                0x00004ed8       0x50 ../lpc2106_install/lib/libtarget.a(kernel_intr.o)
                0x00004ed8                _ZN13Cyg_Interrupt6detachEv
 .text._ZN13Cyg_Interrupt7get_vsrEjPPFvvE
                0x00004f28       0x14 ../lpc2106_install/lib/libtarget.a(kernel_intr.o)
                0x00004f28                _ZN13Cyg_Interrupt7get_vsrEjPPFvvE
 .text._ZN13Cyg_Interrupt7set_vsrEjPFvvEPS1_
                0x00004f3c       0x50 ../lpc2106_install/lib/libtarget.a(kernel_intr.o)
                0x00004f3c                _ZN13Cyg_Interrupt7set_vsrEjPFvvEPS1_
 .text._ZN13Cyg_Interrupt18disable_interruptsEv
                0x00004f8c       0x58 ../lpc2106_install/lib/libtarget.a(kernel_intr.o)
                0x00004f8c                _ZN13Cyg_Interrupt18disable_interruptsEv
 .text._ZN13Cyg_Interrupt17enable_interruptsEv
                0x00004fe4       0x58 ../lpc2106_install/lib/libtarget.a(kernel_intr.o)
                0x00004fe4                _ZN13Cyg_Interrupt17enable_interruptsEv
 .text._GLOBAL__I.12000__ZN13Cyg_Interrupt15disable_counterE
                0x0000503c       0x14 ../lpc2106_install/lib/libtarget.a(kernel_intr.o)
 .text._GLOBAL__D.12000__ZN13Cyg_Interrupt15disable_counterE
                0x00005050        0x4 ../lpc2106_install/lib/libtarget.a(kernel_intr.o)
 .text._ZN13Cyg_Interrupt19configure_interruptEjii
                0x00005054        0x4 ../lpc2106_install/lib/libtarget.a(kernel_intr.o)
                0x00005054                _ZN13Cyg_Interrupt19configure_interruptEjii
 .text._ZN13Cyg_Interrupt21acknowledge_interruptEj
                0x00005058        0x4 ../lpc2106_install/lib/libtarget.a(kernel_intr.o)
                0x00005058                _ZN13Cyg_Interrupt21acknowledge_interruptEj
 .text._ZN13Cyg_Interrupt26unmask_interrupt_intunsafeEj
                0x0000505c        0x4 ../lpc2106_install/lib/libtarget.a(kernel_intr.o)
                0x0000505c                _ZN13Cyg_Interrupt26unmask_interrupt_intunsafeEj
 .text._ZN13Cyg_Interrupt16unmask_interruptEj
                0x00005060       0x38 ../lpc2106_install/lib/libtarget.a(kernel_intr.o)
                0x00005060                _ZN13Cyg_Interrupt16unmask_interruptEj
 .text._ZN13Cyg_Interrupt24mask_interrupt_intunsafeEj
                0x00005098        0x4 ../lpc2106_install/lib/libtarget.a(kernel_intr.o)
                0x00005098                _ZN13Cyg_Interrupt24mask_interrupt_intunsafeEj
 .text._ZN13Cyg_Interrupt14mask_interruptEj
                0x0000509c       0x38 ../lpc2106_install/lib/libtarget.a(kernel_intr.o)
                0x0000509c                _ZN13Cyg_Interrupt14mask_interruptEj
 .text._ZN13Cyg_Interrupt6attachEv
                0x000050d4       0x5c ../lpc2106_install/lib/libtarget.a(kernel_intr.o)
                0x000050d4                _ZN13Cyg_Interrupt6attachEv
 .text.interrupt_end
                0x00005130       0xc0 ../lpc2106_install/lib/libtarget.a(kernel_intr.o)
                0x00005130                interrupt_end
 .text._ZN13Cyg_Interrupt17call_pending_DSRsEv
                0x000051f0        0x4 ../lpc2106_install/lib/libtarget.a(kernel_intr.o)
                0x000051f0                _ZN13Cyg_Interrupt17call_pending_DSRsEv
 .text          0x000051f4        0x0 ../lpc2106_install/lib/libtarget.a(kernel_mlqueue.o)
 .text._ZN28Cyg_Scheduler_ImplementationC2Ev
                0x000051f4       0x54 ../lpc2106_install/lib/libtarget.a(kernel_mlqueue.o)
                0x000051f4                _ZN28Cyg_Scheduler_ImplementationC2Ev
 .text._ZN28Cyg_Scheduler_ImplementationC1Ev
                0x00005248       0x54 ../lpc2106_install/lib/libtarget.a(kernel_mlqueue.o)
                0x00005248                _ZN28Cyg_Scheduler_ImplementationC1Ev
 .text._ZN28Cyg_Scheduler_Implementation10rem_threadEP10Cyg_Thread
                0x0000529c       0xa4 ../lpc2106_install/lib/libtarget.a(kernel_mlqueue.o)
                0x0000529c                _ZN28Cyg_Scheduler_Implementation10rem_threadEP10Cyg_Thread
 .text._ZN28Cyg_Scheduler_Implementation19set_need_rescheduleEP10Cyg_Thread
                0x00005340       0x4c ../lpc2106_install/lib/libtarget.a(kernel_mlqueue.o)
                0x00005340                _ZN28Cyg_Scheduler_Implementation19set_need_rescheduleEP10Cyg_Thread
 .text._ZN28Cyg_Scheduler_Implementation15register_threadEP10Cyg_Thread
                0x0000538c        0x4 ../lpc2106_install/lib/libtarget.a(kernel_mlqueue.o)
                0x0000538c                _ZN28Cyg_Scheduler_Implementation15register_threadEP10Cyg_Thread
 .text._ZN28Cyg_Scheduler_Implementation17deregister_threadEP10Cyg_Thread
                0x00005390        0x4 ../lpc2106_install/lib/libtarget.a(kernel_mlqueue.o)
                0x00005390                _ZN28Cyg_Scheduler_Implementation17deregister_threadEP10Cyg_Thread
 .text._ZN28Cyg_Scheduler_Implementation6uniqueEi
                0x00005394        0x8 ../lpc2106_install/lib/libtarget.a(kernel_mlqueue.o)
                0x00005394                _ZN28Cyg_Scheduler_Implementation6uniqueEi
 .text._ZN28Cyg_Scheduler_Implementation13timeslice_cpuEv
                0x0000539c       0x88 ../lpc2106_install/lib/libtarget.a(kernel_mlqueue.o)
                0x0000539c                _ZN28Cyg_Scheduler_Implementation13timeslice_cpuEv
 .text._ZN28Cyg_Scheduler_Implementation9timesliceEv
                0x00005424       0x20 ../lpc2106_install/lib/libtarget.a(kernel_mlqueue.o)
                0x00005424                _ZN28Cyg_Scheduler_Implementation9timesliceEv
 .text.cyg_scheduler_timeslice_cpu
                0x00005444        0xc ../lpc2106_install/lib/libtarget.a(kernel_mlqueue.o)
                0x00005444                cyg_scheduler_timeslice_cpu
 .text._ZN30Cyg_SchedThread_ImplementationC2Ej
                0x00005450       0x14 ../lpc2106_install/lib/libtarget.a(kernel_mlqueue.o)
                0x00005450                _ZN30Cyg_SchedThread_ImplementationC2Ej
 .text._ZN30Cyg_SchedThread_ImplementationC1Ej
                0x00005464       0x14 ../lpc2106_install/lib/libtarget.a(kernel_mlqueue.o)
                0x00005464                _ZN30Cyg_SchedThread_ImplementationC1Ej
 .text._ZN30Cyg_ThreadQueue_Implementation7enqueueEP10Cyg_Thread
                0x00005478       0x40 ../lpc2106_install/lib/libtarget.a(kernel_mlqueue.o)
                0x00005478                _ZN30Cyg_ThreadQueue_Implementation7enqueueEP10Cyg_Thread
 .text._ZN30Cyg_ThreadQueue_Implementation7dequeueEv
                0x000054b8       0x50 ../lpc2106_install/lib/libtarget.a(kernel_mlqueue.o)
                0x000054b8                _ZN30Cyg_ThreadQueue_Implementation7dequeueEv
 .text._ZN30Cyg_ThreadQueue_Implementation6removeEP10Cyg_Thread
                0x00005508       0x74 ../lpc2106_install/lib/libtarget.a(kernel_mlqueue.o)
                0x00005508                _ZN30Cyg_ThreadQueue_Implementation6removeEP10Cyg_Thread
 .text._ZN28Cyg_Scheduler_Implementation10add_threadEP10Cyg_Thread
                0x0000557c       0xb4 ../lpc2106_install/lib/libtarget.a(kernel_mlqueue.o)
                0x0000557c                _ZN28Cyg_Scheduler_Implementation10add_threadEP10Cyg_Thread
 .text._ZN30Cyg_ThreadQueue_Implementation7highpriEv
                0x00005630       0x10 ../lpc2106_install/lib/libtarget.a(kernel_mlqueue.o)
                0x00005630                _ZN30Cyg_ThreadQueue_Implementation7highpriEv
 .text._ZN30Cyg_SchedThread_Implementation13to_queue_headEv
                0x00005640       0xb8 ../lpc2106_install/lib/libtarget.a(kernel_mlqueue.o)
                0x00005640                _ZN30Cyg_SchedThread_Implementation13to_queue_headEv
 .text._ZN30Cyg_SchedThread_Implementation12rotate_queueEi
                0x000056f8       0x70 ../lpc2106_install/lib/libtarget.a(kernel_mlqueue.o)
                0x000056f8                _ZN30Cyg_SchedThread_Implementation12rotate_queueEi
 .text._ZN30Cyg_SchedThread_Implementation5yieldEv
                0x00005768       0x88 ../lpc2106_install/lib/libtarget.a(kernel_mlqueue.o)
                0x00005768                _ZN30Cyg_SchedThread_Implementation5yieldEv
 .text._ZN28Cyg_Scheduler_Implementation15set_idle_threadEP10Cyg_Threadj
                0x000057f0       0x14 ../lpc2106_install/lib/libtarget.a(kernel_mlqueue.o)
                0x000057f0                _ZN28Cyg_Scheduler_Implementation15set_idle_threadEP10Cyg_Threadj
 .text._ZN28Cyg_Scheduler_Implementation8scheduleEv
                0x00005804       0x28 ../lpc2106_install/lib/libtarget.a(kernel_mlqueue.o)
                0x00005804                _ZN28Cyg_Scheduler_Implementation8scheduleEv
 .text          0x0000582c        0x0 ../lpc2106_install/lib/libtarget.a(kernel_sched.o)
 .text._Z41__static_initialization_and_destruction_0ii
                0x0000582c       0xa0 ../lpc2106_install/lib/libtarget.a(kernel_sched.o)
 .text._GLOBAL__D.11000_cyg_scheduler_sched_lock
                0x000058cc       0x10 ../lpc2106_install/lib/libtarget.a(kernel_sched.o)
 .text._GLOBAL__I.11000_cyg_scheduler_sched_lock
                0x000058dc       0x10 ../lpc2106_install/lib/libtarget.a(kernel_sched.o)
 .text._ZN15Cyg_SchedThread24clear_inherited_priorityEv
                0x000058ec       0x34 ../lpc2106_install/lib/libtarget.a(kernel_sched.o)
                0x000058ec                _ZN15Cyg_SchedThread24clear_inherited_priorityEv
 .text._ZN15Cyg_SchedThread22clear_priority_ceilingEv
                0x00005920        0x4 ../lpc2106_install/lib/libtarget.a(kernel_sched.o)
                0x00005920                _ZN15Cyg_SchedThread22clear_priority_ceilingEv
 .text._ZN15Cyg_SchedThread19disinherit_priorityEv
                0x00005924        0x4 ../lpc2106_install/lib/libtarget.a(kernel_sched.o)
                0x00005924                _ZN15Cyg_SchedThread19disinherit_priorityEv
 .text._ZN15Cyg_SchedThread22set_inherited_priorityEiP10Cyg_Thread
                0x00005928       0x3c ../lpc2106_install/lib/libtarget.a(kernel_sched.o)
                0x00005928                _ZN15Cyg_SchedThread22set_inherited_priorityEiP10Cyg_Thread
 .text._ZN15Cyg_SchedThread20set_priority_ceilingEi
                0x00005964        0x8 ../lpc2106_install/lib/libtarget.a(kernel_sched.o)
                0x00005964                _ZN15Cyg_SchedThread20set_priority_ceilingEi
 .text._ZN15Cyg_SchedThread16inherit_priorityEP10Cyg_Thread
                0x0000596c        0xc ../lpc2106_install/lib/libtarget.a(kernel_sched.o)
                0x0000596c                _ZN15Cyg_SchedThread16inherit_priorityEP10Cyg_Thread
 .text._ZN15Cyg_SchedThread24relay_inherited_priorityEP10Cyg_ThreadP15Cyg_ThreadQueue
                0x00005978       0x18 ../lpc2106_install/lib/libtarget.a(kernel_sched.o)
                0x00005978                _ZN15Cyg_SchedThread24relay_inherited_priorityEP10Cyg_ThreadP15Cyg_ThreadQueue
 .text._ZN15Cyg_SchedThread14relay_priorityEP10Cyg_ThreadP15Cyg_ThreadQueue
                0x00005990        0x4 ../lpc2106_install/lib/libtarget.a(kernel_sched.o)
                0x00005990                _ZN15Cyg_SchedThread14relay_priorityEP10Cyg_ThreadP15Cyg_ThreadQueue
 .text._ZN15Cyg_SchedThreadC1EP10Cyg_Threadj
                0x00005994       0x28 ../lpc2106_install/lib/libtarget.a(kernel_sched.o)
                0x00005994                _ZN15Cyg_SchedThreadC1EP10Cyg_Threadj
 .text._ZN15Cyg_SchedThreadC2EP10Cyg_Threadj
                0x000059bc       0x28 ../lpc2106_install/lib/libtarget.a(kernel_sched.o)
                0x000059bc                _ZN15Cyg_SchedThreadC2EP10Cyg_Threadj
 .text._ZN13Cyg_Scheduler9start_cpuEv
                0x000059e4       0x34 ../lpc2106_install/lib/libtarget.a(kernel_sched.o)
                0x000059e4                _ZN13Cyg_Scheduler9start_cpuEv
 .text._ZN13Cyg_Scheduler5startEv
                0x00005a18        0x4 ../lpc2106_install/lib/libtarget.a(kernel_sched.o)
                0x00005a18                _ZN13Cyg_Scheduler5startEv
 .text._ZN13Cyg_Scheduler12unlock_innerEj
                0x00005a1c       0xf4 ../lpc2106_install/lib/libtarget.a(kernel_sched.o)
                0x00005a1c                _ZN13Cyg_Scheduler12unlock_innerEj
 .text._ZN13Cyg_Scheduler12thread_entryEP10Cyg_Thread
                0x00005b10       0x88 ../lpc2106_install/lib/libtarget.a(kernel_sched.o)
                0x00005b10                _ZN13Cyg_Scheduler12thread_entryEP10Cyg_Thread
 .text          0x00005b98        0x0 ../lpc2106_install/lib/libtarget.a(kernel_cnt_sem.o)
 .text._ZN22Cyg_Counting_SemaphoreC2Ei
                0x00005b98        0xc ../lpc2106_install/lib/libtarget.a(kernel_cnt_sem.o)
                0x00005b98                _ZN22Cyg_Counting_SemaphoreC2Ei
 .text._ZN22Cyg_Counting_SemaphoreC1Ei
                0x00005ba4        0xc ../lpc2106_install/lib/libtarget.a(kernel_cnt_sem.o)
                0x00005ba4                _ZN22Cyg_Counting_SemaphoreC1Ei
 .text._ZN22Cyg_Counting_SemaphoreD2Ev
                0x00005bb0       0x40 ../lpc2106_install/lib/libtarget.a(kernel_cnt_sem.o)
                0x00005bb0                _ZN22Cyg_Counting_SemaphoreD2Ev
 .text._ZN22Cyg_Counting_SemaphoreD1Ev
                0x00005bf0       0x40 ../lpc2106_install/lib/libtarget.a(kernel_cnt_sem.o)
                0x00005bf0                _ZN22Cyg_Counting_SemaphoreD1Ev
 .text._ZNK22Cyg_Counting_Semaphore4peekEv
                0x00005c30        0x8 ../lpc2106_install/lib/libtarget.a(kernel_cnt_sem.o)
                0x00005c30                _ZNK22Cyg_Counting_Semaphore4peekEv
 .text._ZN22Cyg_Counting_Semaphore4waitEv
                0x00005c38       0xe4 ../lpc2106_install/lib/libtarget.a(kernel_cnt_sem.o)
                0x00005c38                _ZN22Cyg_Counting_Semaphore4waitEv
 .text._ZN22Cyg_Counting_Semaphore4waitEy
                0x00005d1c      0x15c ../lpc2106_install/lib/libtarget.a(kernel_cnt_sem.o)
                0x00005d1c                _ZN22Cyg_Counting_Semaphore4waitEy
 .text._ZN22Cyg_Counting_Semaphore4postEv
                0x00005e78       0x6c ../lpc2106_install/lib/libtarget.a(kernel_cnt_sem.o)
                0x00005e78                _ZN22Cyg_Counting_Semaphore4postEv
 .text._ZN22Cyg_Counting_Semaphore7trywaitEv
                0x00005ee4       0x58 ../lpc2106_install/lib/libtarget.a(kernel_cnt_sem.o)
                0x00005ee4                _ZN22Cyg_Counting_Semaphore7trywaitEv
 .text          0x00005f3c        0x0 ../lpc2106_install/lib/libtarget.a(kernel_flag.o)
 .text._ZN8Cyg_FlagC2Ej
                0x00005f3c        0xc ../lpc2106_install/lib/libtarget.a(kernel_flag.o)
                0x00005f3c                _ZN8Cyg_FlagC2Ej
 .text._ZN8Cyg_FlagC1Ej
                0x00005f48        0xc ../lpc2106_install/lib/libtarget.a(kernel_flag.o)
                0x00005f48                _ZN8Cyg_FlagC1Ej
 .text._ZN8Cyg_FlagD2Ev
                0x00005f54       0xb4 ../lpc2106_install/lib/libtarget.a(kernel_flag.o)
                0x00005f54                _ZN8Cyg_FlagD2Ev
 .text._ZN8Cyg_Flag4pollEjh
                0x00006008       0x9c ../lpc2106_install/lib/libtarget.a(kernel_flag.o)
                0x00006008                _ZN8Cyg_Flag4pollEjh
 .text._ZN8Cyg_Flag8maskbitsEj
                0x000060a4       0x48 ../lpc2106_install/lib/libtarget.a(kernel_flag.o)
                0x000060a4                _ZN8Cyg_Flag8maskbitsEj
 .text._ZN8Cyg_Flag7setbitsEj
                0x000060ec      0x124 ../lpc2106_install/lib/libtarget.a(kernel_flag.o)
                0x000060ec                _ZN8Cyg_Flag7setbitsEj
 .text._ZN8Cyg_FlagD1Ev
                0x00006210       0xb4 ../lpc2106_install/lib/libtarget.a(kernel_flag.o)
                0x00006210                _ZN8Cyg_FlagD1Ev
 .text._ZN8Cyg_Flag4waitEjh
                0x000062c4      0x110 ../lpc2106_install/lib/libtarget.a(kernel_flag.o)
                0x000062c4                _ZN8Cyg_Flag4waitEjh
 .text._ZN8Cyg_Flag4waitEjhy
                0x000063d4      0x160 ../lpc2106_install/lib/libtarget.a(kernel_flag.o)
                0x000063d4                _ZN8Cyg_Flag4waitEjhy
 .text          0x00006534        0x0 ../lpc2106_install/lib/libtarget.a(kernel_mbox.o)
 .text._ZN8Cyg_MboxC2Ev
                0x00006534       0x18 ../lpc2106_install/lib/libtarget.a(kernel_mbox.o)
                0x00006534                _ZN8Cyg_MboxC2Ev
 .text._ZN8Cyg_MboxC1Ev
                0x0000654c       0x18 ../lpc2106_install/lib/libtarget.a(kernel_mbox.o)
                0x0000654c                _ZN8Cyg_MboxC1Ev
 .text._ZN8Cyg_MboxD2Ev
                0x00006564       0x7c ../lpc2106_install/lib/libtarget.a(kernel_mbox.o)
                0x00006564                _ZN8Cyg_MboxD2Ev
 .text._ZN8Cyg_MboxD1Ev
                0x000065e0       0x7c ../lpc2106_install/lib/libtarget.a(kernel_mbox.o)
                0x000065e0                _ZN8Cyg_MboxD1Ev
 .text._ZN8Cyg_Mbox9peek_itemEv
                0x0000665c       0x70 ../lpc2106_install/lib/libtarget.a(kernel_mbox.o)
                0x0000665c                _ZN8Cyg_Mbox9peek_itemEv
 .text._ZN8Cyg_Mbox3getEy
                0x000066cc      0x188 ../lpc2106_install/lib/libtarget.a(kernel_mbox.o)
                0x000066cc                _ZN8Cyg_Mbox3getEy
 .text._ZN8Cyg_Mbox6tryputEPv
                0x00006854       0xb4 ../lpc2106_install/lib/libtarget.a(kernel_mbox.o)
                0x00006854                _ZN8Cyg_Mbox6tryputEPv
 .text._ZN8Cyg_Mbox3putEPv
                0x00006908      0x128 ../lpc2106_install/lib/libtarget.a(kernel_mbox.o)
                0x00006908                _ZN8Cyg_Mbox3putEPv
 .text._ZN8Cyg_Mbox3putEPvy
                0x00006a30      0x17c ../lpc2106_install/lib/libtarget.a(kernel_mbox.o)
                0x00006a30                _ZN8Cyg_Mbox3putEPvy
 .text._ZN8Cyg_Mbox6trygetEv
                0x00006bac       0xbc ../lpc2106_install/lib/libtarget.a(kernel_mbox.o)
                0x00006bac                _ZN8Cyg_Mbox6trygetEv
 .text._ZN8Cyg_Mbox3getEv
                0x00006c68      0x134 ../lpc2106_install/lib/libtarget.a(kernel_mbox.o)
                0x00006c68                _ZN8Cyg_Mbox3getEv
 .text          0x00006d9c        0x0 ../lpc2106_install/lib/libtarget.a(kernel_mutex.o)
 .text._ZN9Cyg_MutexC2Ev
                0x00006d9c       0x1c ../lpc2106_install/lib/libtarget.a(kernel_mutex.o)
                0x00006d9c                _ZN9Cyg_MutexC2Ev
 .text._ZN9Cyg_MutexC1Ev
                0x00006db8       0x1c ../lpc2106_install/lib/libtarget.a(kernel_mutex.o)
                0x00006db8                _ZN9Cyg_MutexC1Ev
 .text._ZN9Cyg_MutexC2ENS_11cyg_protcolE
                0x00006dd4       0x1c ../lpc2106_install/lib/libtarget.a(kernel_mutex.o)
                0x00006dd4                _ZN9Cyg_MutexC2ENS_11cyg_protcolE
 .text._ZN9Cyg_MutexC1ENS_11cyg_protcolE
                0x00006df0       0x1c ../lpc2106_install/lib/libtarget.a(kernel_mutex.o)
                0x00006df0                _ZN9Cyg_MutexC1ENS_11cyg_protcolE
 .text._ZN9Cyg_MutexD2Ev
                0x00006e0c       0x48 ../lpc2106_install/lib/libtarget.a(kernel_mutex.o)
                0x00006e0c                _ZN9Cyg_MutexD2Ev
 .text._ZN9Cyg_MutexD1Ev
                0x00006e54       0x48 ../lpc2106_install/lib/libtarget.a(kernel_mutex.o)
                0x00006e54                _ZN9Cyg_MutexD1Ev
 .text._ZN22Cyg_Condition_VariableC2ER9Cyg_Mutex
                0x00006e9c        0xc ../lpc2106_install/lib/libtarget.a(kernel_mutex.o)
                0x00006e9c                _ZN22Cyg_Condition_VariableC2ER9Cyg_Mutex
 .text._ZN22Cyg_Condition_VariableC1ER9Cyg_Mutex
                0x00006ea8        0xc ../lpc2106_install/lib/libtarget.a(kernel_mutex.o)
                0x00006ea8                _ZN22Cyg_Condition_VariableC1ER9Cyg_Mutex
 .text._ZN22Cyg_Condition_VariableC2Ev
                0x00006eb4       0x10 ../lpc2106_install/lib/libtarget.a(kernel_mutex.o)
                0x00006eb4                _ZN22Cyg_Condition_VariableC2Ev
 .text._ZN22Cyg_Condition_VariableC1Ev
                0x00006ec4       0x10 ../lpc2106_install/lib/libtarget.a(kernel_mutex.o)
                0x00006ec4                _ZN22Cyg_Condition_VariableC1Ev
 .text._ZN22Cyg_Condition_VariableD2Ev
                0x00006ed4       0x40 ../lpc2106_install/lib/libtarget.a(kernel_mutex.o)
                0x00006ed4                _ZN22Cyg_Condition_VariableD2Ev
 .text._ZN22Cyg_Condition_VariableD1Ev
                0x00006f14       0x40 ../lpc2106_install/lib/libtarget.a(kernel_mutex.o)
                0x00006f14                _ZN22Cyg_Condition_VariableD1Ev
 .text._ZN9Cyg_Mutex4lockEv
                0x00006f54      0x184 ../lpc2106_install/lib/libtarget.a(kernel_mutex.o)
                0x00006f54                _ZN9Cyg_Mutex4lockEv
 .text._ZN9Cyg_Mutex7trylockEv
                0x000070d8       0xa4 ../lpc2106_install/lib/libtarget.a(kernel_mutex.o)
                0x000070d8                _ZN9Cyg_Mutex7trylockEv
 .text._ZN9Cyg_Mutex12set_protocolENS_11cyg_protcolE
                0x0000717c       0x40 ../lpc2106_install/lib/libtarget.a(kernel_mutex.o)
                0x0000717c                _ZN9Cyg_Mutex12set_protocolENS_11cyg_protcolE
 .text._ZN9Cyg_Mutex11set_ceilingEi
                0x000071bc       0x40 ../lpc2106_install/lib/libtarget.a(kernel_mutex.o)
                0x000071bc                _ZN9Cyg_Mutex11set_ceilingEi
 .text._ZN22Cyg_Condition_Variable9broadcastEv
                0x000071fc       0x74 ../lpc2106_install/lib/libtarget.a(kernel_mutex.o)
                0x000071fc                _ZN22Cyg_Condition_Variable9broadcastEv
 .text._ZN22Cyg_Condition_Variable6signalEv
                0x00007270       0x60 ../lpc2106_install/lib/libtarget.a(kernel_mutex.o)
                0x00007270                _ZN22Cyg_Condition_Variable6signalEv
 .text._ZN9Cyg_Mutex7releaseEv
                0x000072d0       0x64 ../lpc2106_install/lib/libtarget.a(kernel_mutex.o)
                0x000072d0                _ZN9Cyg_Mutex7releaseEv
 .text._ZN9Cyg_Mutex6unlockEv
                0x00007334       0xf8 ../lpc2106_install/lib/libtarget.a(kernel_mutex.o)
                0x00007334                _ZN9Cyg_Mutex6unlockEv
 .text._ZN22Cyg_Condition_Variable10wait_innerEP9Cyg_Mutexy
                0x0000742c      0x108 ../lpc2106_install/lib/libtarget.a(kernel_mutex.o)
                0x0000742c                _ZN22Cyg_Condition_Variable10wait_innerEP9Cyg_Mutexy
 .text._ZN22Cyg_Condition_Variable10wait_innerEP9Cyg_Mutex
                0x00007534       0xc4 ../lpc2106_install/lib/libtarget.a(kernel_mutex.o)
                0x00007534                _ZN22Cyg_Condition_Variable10wait_innerEP9Cyg_Mutex
 .text          0x000075f8        0x0 ../lpc2106_install/lib/libtarget.a(language_c_libc_startup_mainthread.o)
 .text._Z41__static_initialization_and_destruction_0ii
                0x000075f8       0x90 ../lpc2106_install/lib/libtarget.a(language_c_libc_startup_mainthread.o)
 .text._GLOBAL__D.56000_cyg_libc_main_thread
                0x00007688       0x10 ../lpc2106_install/lib/libtarget.a(language_c_libc_startup_mainthread.o)
 .text._GLOBAL__I.56000_cyg_libc_main_thread
                0x00007698       0x10 ../lpc2106_install/lib/libtarget.a(language_c_libc_startup_mainthread.o)
 .text          0x000076a8        0x0 ../lpc2106_install/lib/libtarget.a(language_c_libc_stdio_stdioinlines.o)
 .text.vscanf   0x000076a8       0x1c ../lpc2106_install/lib/libtarget.a(language_c_libc_stdio_stdioinlines.o)
                0x000076a8                vscanf
 .text.perror   0x000076c4       0x74 ../lpc2106_install/lib/libtarget.a(language_c_libc_stdio_stdioinlines.o)
                0x000076c4                perror
 .text.puts     0x00007738       0x2c ../lpc2106_install/lib/libtarget.a(language_c_libc_stdio_stdioinlines.o)
                0x00007738                puts
 .text.vsprintf
                0x00007764       0x10 ../lpc2106_install/lib/libtarget.a(language_c_libc_stdio_stdioinlines.o)
                0x00007764                vsprintf
 .text.vprintf  0x00007774       0x1c ../lpc2106_install/lib/libtarget.a(language_c_libc_stdio_stdioinlines.o)
                0x00007774                vprintf
 .text.vfprintf
                0x00007790       0x10 ../lpc2106_install/lib/libtarget.a(language_c_libc_stdio_stdioinlines.o)
                0x00007790                vfprintf
 .text.setbuf   0x000077a0       0x1c ../lpc2106_install/lib/libtarget.a(language_c_libc_stdio_stdioinlines.o)
                0x000077a0                setbuf
 .text          0x000077bc        0x0 ../lpc2106_install/lib/libtarget.a(language_c_libc_stdio_stdout.o)
 .text._Z41__static_initialization_and_destruction_0ii
                0x000077bc      0x130 ../lpc2106_install/lib/libtarget.a(language_c_libc_stdio_stdout.o)
 .text._GLOBAL__D.56001_cyg_libc_stdio_stdout
                0x000078ec       0x10 ../lpc2106_install/lib/libtarget.a(language_c_libc_stdio_stdout.o)
 .text._GLOBAL__I.56001_cyg_libc_stdio_stdout
                0x000078fc       0x10 ../lpc2106_install/lib/libtarget.a(language_c_libc_stdio_stdout.o)
 .text          0x0000790c        0x0 ../lpc2106_install/lib/libtarget.a(language_c_libc_stdio_stream.o)
 .text._ZN16Cyg_OutputStreamD1Ev
                0x0000790c       0x10 ../lpc2106_install/lib/libtarget.a(language_c_libc_stdio_stream.o)
                0x0000790c                _ZN16Cyg_OutputStreamD1Ev
 .text._ZN16Cyg_OutputStream5writeEPKhjPj
                0x0000791c        0x8 ../lpc2106_install/lib/libtarget.a(language_c_libc_stdio_stream.o)
                0x0000791c                _ZN16Cyg_OutputStream5writeEPKhjPj
 .text._ZN16Cyg_OutputStream9get_errorEv
                0x00007924        0x8 ../lpc2106_install/lib/libtarget.a(language_c_libc_stdio_stream.o)
                0x00007924                _ZN16Cyg_OutputStream9get_errorEv
 .text._ZN16Cyg_OutputStreamD0Ev
                0x0000792c       0x20 ../lpc2106_install/lib/libtarget.a(language_c_libc_stdio_stream.o)
                0x0000792c                _ZN16Cyg_OutputStreamD0Ev
 .text._ZN15Cyg_StdioStream9get_errorEv
                0x0000794c       0x38 ../lpc2106_install/lib/libtarget.a(language_c_libc_stdio_stream.o)
                0x0000794c                _ZN15Cyg_StdioStream9get_errorEv
 .text._ZN15Cyg_StdioStream21flush_output_unlockedEv
                0x00007984       0x8c ../lpc2106_install/lib/libtarget.a(language_c_libc_stdio_stream.o)
                0x00007984                _ZN15Cyg_StdioStream21flush_output_unlockedEv
 .text._ZN15Cyg_StdioStreamD0Ev
                0x00007a10       0xa8 ../lpc2106_install/lib/libtarget.a(language_c_libc_stdio_stream.o)
                0x00007a10                _ZN15Cyg_StdioStreamD0Ev
 .text._ZN15Cyg_StdioStream5writeEPKhjPj
                0x00007ab8      0x1e8 ../lpc2106_install/lib/libtarget.a(language_c_libc_stdio_stream.o)
                0x00007ab8                _ZN15Cyg_StdioStream5writeEPKhjPj
 .text._ZN15Cyg_StdioStream9peek_byteEPh
                0x00007ca0       0xf0 ../lpc2106_install/lib/libtarget.a(language_c_libc_stdio_stream.o)
                0x00007ca0                _ZN15Cyg_StdioStream9peek_byteEPh
 .text._ZN15Cyg_StdioStream9read_byteEPh
                0x00007d90      0x148 ../lpc2106_install/lib/libtarget.a(language_c_libc_stdio_stream.o)
                0x00007d90                _ZN15Cyg_StdioStream9read_byteEPh
 .text._ZN15Cyg_StdioStream4readEPhjPj
                0x00007ed8      0x1d4 ../lpc2106_install/lib/libtarget.a(language_c_libc_stdio_stream.o)
                0x00007ed8                _ZN15Cyg_StdioStream4readEPhjPj
 .text._ZN15Cyg_StdioStream18refill_read_bufferEv
                0x000080ac      0x150 ../lpc2106_install/lib/libtarget.a(language_c_libc_stdio_stream.o)
                0x000080ac                _ZN15Cyg_StdioStream18refill_read_bufferEv
 .text._ZN15Cyg_StdioStream10initializeEPvNS_8OpenModeEiiijPh
                0x000081fc      0x184 ../lpc2106_install/lib/libtarget.a(language_c_libc_stdio_stream.o)
                0x000081fc                _ZN15Cyg_StdioStream10initializeEPvNS_8OpenModeEiiijPh
 .text._ZN15Cyg_StdioStreamC1ENS_8OpenModeEjPh
                0x00008380       0xb8 ../lpc2106_install/lib/libtarget.a(language_c_libc_stdio_stream.o)
                0x00008380                _ZN15Cyg_StdioStreamC1ENS_8OpenModeEjPh
 .text._ZN15Cyg_StdioStreamC2ENS_8OpenModeEjPh
                0x00008438       0xb8 ../lpc2106_install/lib/libtarget.a(language_c_libc_stdio_stream.o)
                0x00008438                _ZN15Cyg_StdioStreamC2ENS_8OpenModeEjPh
 .text._ZN15Cyg_StdioStreamC1EPvNS_8OpenModeEiiijPh
                0x000084f0       0x8c ../lpc2106_install/lib/libtarget.a(language_c_libc_stdio_stream.o)
                0x000084f0                _ZN15Cyg_StdioStreamC1EPvNS_8OpenModeEiiijPh
 .text._ZN15Cyg_StdioStreamC2EPvNS_8OpenModeEiiijPh
                0x0000857c       0x8c ../lpc2106_install/lib/libtarget.a(language_c_libc_stdio_stream.o)
                0x0000857c                _ZN15Cyg_StdioStreamC2EPvNS_8OpenModeEiiijPh
 .text._ZN15Cyg_StdioStreamD1Ev
                0x00008608       0xa0 ../lpc2106_install/lib/libtarget.a(language_c_libc_stdio_stream.o)
                0x00008608                _ZN15Cyg_StdioStreamD1Ev
 .text          0x000086a8        0x0 ../lpc2106_install/lib/libtarget.a(language_c_libc_stdio_streambuf.o)
 .text._ZN21Cyg_StdioStreamBuffer10set_bufferEjPh
                0x000086a8       0x94 ../lpc2106_install/lib/libtarget.a(language_c_libc_stdio_streambuf.o)
                0x000086a8                _ZN21Cyg_StdioStreamBuffer10set_bufferEjPh
 .text          0x0000873c        0x0 ../lpc2106_install/lib/libtarget.a(language_c_libc_stdio_vsnprintf.o)
 .text._ZN19Cyg_VsnprintfStreamD1Ev
                0x0000873c       0x1c ../lpc2106_install/lib/libtarget.a(language_c_libc_stdio_vsnprintf.o)
                0x0000873c                _ZN19Cyg_VsnprintfStreamD1Ev
 .text._ZN19Cyg_VsnprintfStream9get_errorEv
                0x00008758        0x8 ../lpc2106_install/lib/libtarget.a(language_c_libc_stdio_vsnprintf.o)
                0x00008758                _ZN19Cyg_VsnprintfStream9get_errorEv
 .text._ZN19Cyg_VsnprintfStream5writeEPKhjPj
                0x00008760       0x54 ../lpc2106_install/lib/libtarget.a(language_c_libc_stdio_vsnprintf.o)
                0x00008760                _ZN19Cyg_VsnprintfStream5writeEPKhjPj
 .text._ZN19Cyg_VsnprintfStreamD0Ev
                0x000087b4       0x2c ../lpc2106_install/lib/libtarget.a(language_c_libc_stdio_vsnprintf.o)
                0x000087b4                _ZN19Cyg_VsnprintfStreamD0Ev
 .text.vsnprintf
                0x000087e0       0x38 ../lpc2106_install/lib/libtarget.a(language_c_libc_stdio_vsnprintf.o)
                0x000087e0                vsnprintf
 .text          0x00008818        0x0 ../lpc2106_install/lib/libtarget.a(language_c_libc_stdio_vfscanf.o)
 .text._ZN15Cyg_StdioStream12set_positionEii
                0x00008818       0xb0 ../lpc2106_install/lib/libtarget.a(language_c_libc_stdio_vfscanf.o)
                0x00008818                _ZN15Cyg_StdioStream12set_positionEii
 .text.vfscanf  0x000088c8     0x1548 ../lpc2106_install/lib/libtarget.a(language_c_libc_stdio_vfscanf.o)
                0x000088c8                vfscanf
 .text          0x00009e10        0x0 ../lpc2106_install/lib/libtarget.a(language_c_libc_stdio_fprintf.o)
 .text.fprintf  0x00009e10       0x24 ../lpc2106_install/lib/libtarget.a(language_c_libc_stdio_fprintf.o)
                0x00009e10                fprintf
 .text          0x00009e34        0x0 ../lpc2106_install/lib/libtarget.a(language_c_libc_stdio_fputc.o)
 .text.fputc    0x00009e34       0xa8 ../lpc2106_install/lib/libtarget.a(language_c_libc_stdio_fputc.o)
                0x00009e34                putc
                0x00009e34                fputc
 .text.putchar  0x00009edc       0x10 ../lpc2106_install/lib/libtarget.a(language_c_libc_stdio_fputc.o)
                0x00009edc                putchar
 .text          0x00009eec        0x0 ../lpc2106_install/lib/libtarget.a(language_c_libc_stdio_fputs.o)
 .text.fputs    0x00009eec       0xa4 ../lpc2106_install/lib/libtarget.a(language_c_libc_stdio_fputs.o)
                0x00009eec                fputs
 .text          0x00009f90        0x0 ../lpc2106_install/lib/libtarget.a(language_c_libc_stdio_vfnprintf.o)
 .text._ZL5rounddPiPcS0_cS0_
                0x00009f90      0x12c ../lpc2106_install/lib/libtarget.a(language_c_libc_stdio_vfnprintf.o)
 *fill*         0x0000a0bc        0x4 00
 .text.vfnprintf
                0x0000a0c0     0x1fd0 ../lpc2106_install/lib/libtarget.a(language_c_libc_stdio_vfnprintf.o)
                0x0000a0c0                vfnprintf
 .text          0x0000c090        0x0 ../lpc2106_install/lib/libtarget.a(language_c_libc_stdlib_strtod.o)
 .text._ZL5exp10j
                0x0000c090       0x7c ../lpc2106_install/lib/libtarget.a(language_c_libc_stdlib_strtod.o)
 .text.strtod   0x0000c10c      0x350 ../lpc2106_install/lib/libtarget.a(language_c_libc_stdlib_strtod.o)
                0x0000c10c                strtod
 .text          0x0000c45c        0x0 ../lpc2106_install/lib/libtarget.a(language_c_libc_stdlib_strtol.o)
 .text.strtol   0x0000c45c      0x1e4 ../lpc2106_install/lib/libtarget.a(language_c_libc_stdlib_strtol.o)
                0x0000c45c                strtol
 .text          0x0000c640        0x0 ../lpc2106_install/lib/libtarget.a(language_c_libc_stdlib_strtoul.o)
 .text.strtoul  0x0000c640      0x1dc ../lpc2106_install/lib/libtarget.a(language_c_libc_stdlib_strtoul.o)
                0x0000c640                strtoul
 .text          0x0000c81c        0x0 ../lpc2106_install/lib/libtarget.a(language_c_libc_stdlib_strtoll.o)
 .text.strtoll  0x0000c81c      0x2a4 ../lpc2106_install/lib/libtarget.a(language_c_libc_stdlib_strtoll.o)
                0x0000c81c                strtoll
 .text          0x0000cac0        0x0 ../lpc2106_install/lib/libtarget.a(language_c_libc_stdlib_strtoull.o)
 .text.strtoull
                0x0000cac0      0x2f0 ../lpc2106_install/lib/libtarget.a(language_c_libc_stdlib_strtoull.o)
                0x0000cac0                strtoull
 .text          0x0000cdb0        0x0 ../lpc2106_install/lib/libtarget.a(language_c_libc_string_memchr.o)
 .text.__memchr
                0x0000cdb0      0x14c ../lpc2106_install/lib/libtarget.a(language_c_libc_string_memchr.o)
                0x0000cdb0                memchr
                0x0000cdb0                __memchr
 .text          0x0000cefc        0x0 ../lpc2106_install/lib/libtarget.a(language_c_libc_string_strlen.o)
 .text.__strlen
                0x0000cefc       0xb0 ../lpc2106_install/lib/libtarget.a(language_c_libc_string_strlen.o)
                0x0000cefc                __strlen
                0x0000cefc                strlen
 .text          0x0000cfac        0x0 ../lpc2106_install/lib/libtarget.a(language_c_libc_string_strsuppt.o)
 .text          0x0000cfac        0x0 ../lpc2106_install/lib/libtarget.a(language_c_libm_infconst.o)
 .text          0x0000cfac        0x0 ../lpc2106_install/lib/libtarget.a(language_c_libm_s_modf.o)
 .text.modf     0x0000cfac      0x104 ../lpc2106_install/lib/libtarget.a(language_c_libm_s_modf.o)
                0x0000cfac                modf
 .text          0x0000d0b0        0x0 ../lpc2106_install/lib/libtarget.a(error_strerror.o)
 .text.__strerror
                0x0000d0b0      0x8c0 ../lpc2106_install/lib/libtarget.a(error_strerror.o)
                0x0000d0b0                strerror
                0x0000d0b0                __strerror
 .text          0x0000d970        0x0 ../lpc2106_install/lib/libtarget.a(error_errno.o)
 .text.cyg_error_get_errno_p
                0x0000d970       0x18 ../lpc2106_install/lib/libtarget.a(error_errno.o)
                0x0000d970                cyg_error_get_errno_p
 .text          0x0000d988        0x0 ../lpc2106_install/lib/libtarget.a(hal_arm_arch_hal_misc.o)
 .text.hal_spurious_IRQ
                0x0000d988        0x4 ../lpc2106_install/lib/libtarget.a(hal_arm_arch_hal_misc.o)
                0x0000d988                hal_spurious_IRQ
 .text.cyg_hal_invoke_constructors
                0x0000d98c       0x40 ../lpc2106_install/lib/libtarget.a(hal_arm_arch_hal_misc.o)
                0x0000d98c                cyg_hal_invoke_constructors
 .text.hal_arch_default_isr
                0x0000d9cc        0x8 ../lpc2106_install/lib/libtarget.a(hal_arm_arch_hal_misc.o)
                0x0000d9cc                hal_arch_default_isr
 .text.hal_lsbindex
                0x0000d9d4       0x28 ../lpc2106_install/lib/libtarget.a(hal_arm_arch_hal_misc.o)
                0x0000d9d4                hal_lsbindex
 .text.hal_msbindex
                0x0000d9fc       0x20 ../lpc2106_install/lib/libtarget.a(hal_arm_arch_hal_misc.o)
                0x0000d9fc                hal_msbindex
 .text.exception_handler
                0x0000da1c        0xc ../lpc2106_install/lib/libtarget.a(hal_arm_arch_hal_misc.o)
                0x0000da1c                exception_handler
 .text          0x0000da28       0x54 ../lpc2106_install/lib/libtarget.a(hal_arm_arch_context.o)
                0x0000da64                hal_setjmp
                0x0000da44                hal_thread_load_context
                0x0000da28                hal_thread_switch_context
                0x0000da70                hal_longjmp
 .text          0x0000da7c        0x0 ../lpc2106_install/lib/libtarget.a(hal_arm_lpc2xxx_var_lpc2xxx_misc.o)
 .text.hal_clock_initialize
                0x0000da7c       0x34 ../lpc2106_install/lib/libtarget.a(hal_arm_lpc2xxx_var_lpc2xxx_misc.o)
                0x0000da7c                hal_clock_initialize
 .text.hal_clock_reset
                0x0000dab0       0x40 ../lpc2106_install/lib/libtarget.a(hal_arm_lpc2xxx_var_lpc2xxx_misc.o)
                0x0000dab0                hal_clock_reset
 .text.hal_clock_read
                0x0000daf0       0x14 ../lpc2106_install/lib/libtarget.a(hal_arm_lpc2xxx_var_lpc2xxx_misc.o)
                0x0000daf0                hal_clock_read
 .text.hal_delay_us
                0x0000db04       0x80 ../lpc2106_install/lib/libtarget.a(hal_arm_lpc2xxx_var_lpc2xxx_misc.o)
                0x0000db04                hal_delay_us
 .text.lpc_get_vpbdiv
                0x0000db84       0x14 ../lpc2106_install/lib/libtarget.a(hal_arm_lpc2xxx_var_lpc2xxx_misc.o)
                0x0000db84                lpc_get_vpbdiv
 .text.lpc_set_vpbdiv
                0x0000db98       0x14 ../lpc2106_install/lib/libtarget.a(hal_arm_lpc2xxx_var_lpc2xxx_misc.o)
                0x0000db98                lpc_set_vpbdiv
 .text.hal_IRQ_handler
                0x0000dbac       0x44 ../lpc2106_install/lib/libtarget.a(hal_arm_lpc2xxx_var_lpc2xxx_misc.o)
                0x0000dbac                hal_IRQ_handler
 .text.hal_interrupt_mask
                0x0000dbf0       0x14 ../lpc2106_install/lib/libtarget.a(hal_arm_lpc2xxx_var_lpc2xxx_misc.o)
                0x0000dbf0                hal_interrupt_mask
 .text.hal_interrupt_unmask
                0x0000dc04       0x14 ../lpc2106_install/lib/libtarget.a(hal_arm_lpc2xxx_var_lpc2xxx_misc.o)
                0x0000dc04                hal_interrupt_unmask
 .text.hal_interrupt_acknowledge
                0x0000dc18       0x2c ../lpc2106_install/lib/libtarget.a(hal_arm_lpc2xxx_var_lpc2xxx_misc.o)
                0x0000dc18                hal_interrupt_acknowledge
 .text.hal_interrupt_configure
                0x0000dc44       0x8c ../lpc2106_install/lib/libtarget.a(hal_arm_lpc2xxx_var_lpc2xxx_misc.o)
                0x0000dc44                hal_interrupt_configure
 .text.hal_interrupt_set_level
                0x0000dcd0       0x1c ../lpc2106_install/lib/libtarget.a(hal_arm_lpc2xxx_var_lpc2xxx_misc.o)
                0x0000dcd0                hal_interrupt_set_level
 .text.hal_lpc_watchdog_reset
                0x0000dcec       0x28 ../lpc2106_install/lib/libtarget.a(hal_arm_lpc2xxx_var_lpc2xxx_misc.o)
                0x0000dcec                hal_lpc_watchdog_reset
 .text.hal_hardware_init
                0x0000dd14       0x1c ../lpc2106_install/lib/libtarget.a(hal_arm_lpc2xxx_var_lpc2xxx_misc.o)
                0x0000dd14                hal_hardware_init
 .text          0x0000dd30        0x0 ../lpc2106_install/lib/libtarget.a(hal_arm_lpc2xxx_p2106_p2106_misc.o)
 .text.hal_lpc2xxx_set_leds
                0x0000dd30       0x1c ../lpc2106_install/lib/libtarget.a(hal_arm_lpc2xxx_p2106_p2106_misc.o)
                0x0000dd30                hal_lpc2xxx_set_leds
 .text.cyg_hal_plf_comms_init
                0x0000dd4c       0x20 ../lpc2106_install/lib/libtarget.a(hal_arm_lpc2xxx_p2106_p2106_misc.o)
                0x0000dd4c                cyg_hal_plf_comms_init
 .text          0x0000dd6c        0x0 ../lpc2106_install/lib/libtarget.a(infra_memcpy.o)
 .text._memcpy  0x0000dd6c      0x118 ../lpc2106_install/lib/libtarget.a(infra_memcpy.o)
                0x0000dd6c                memcpy
                0x0000dd6c                _memcpy
 .text          0x0000de84        0x0 ../lpc2106_install/lib/libtarget.a(infra_delete.o)
 .text._ZdlPv   0x0000de84        0x4 ../lpc2106_install/lib/libtarget.a(infra_delete.o)
                0x0000de84                _ZdlPv
 .text._ZdaPv   0x0000de88        0x4 ../lpc2106_install/lib/libtarget.a(infra_delete.o)
                0x0000de88                _ZdaPv
 .text          0x0000de8c        0x0 ../lpc2106_install/lib/libtarget.a(kernel_clock.o)
 .text._ZN11Cyg_CounterC2Ej
                0x0000de8c       0x28 ../lpc2106_install/lib/libtarget.a(kernel_clock.o)
                0x0000de8c                _ZN11Cyg_CounterC2Ej
 .text._ZN11Cyg_CounterC1Ej
                0x0000deb4       0x28 ../lpc2106_install/lib/libtarget.a(kernel_clock.o)
                0x0000deb4                _ZN11Cyg_CounterC1Ej
 .text._ZN11Cyg_CounterD2Ev
                0x0000dedc       0x40 ../lpc2106_install/lib/libtarget.a(kernel_clock.o)
                0x0000dedc                _ZN11Cyg_CounterD2Ev
 .text._ZN11Cyg_CounterD1Ev
                0x0000df1c       0x40 ../lpc2106_install/lib/libtarget.a(kernel_clock.o)
                0x0000df1c                _ZN11Cyg_CounterD1Ev
 .text._ZN11Cyg_Counter9rem_alarmEP9Cyg_Alarm
                0x0000df5c       0x78 ../lpc2106_install/lib/libtarget.a(kernel_clock.o)
                0x0000df5c                _ZN11Cyg_Counter9rem_alarmEP9Cyg_Alarm
 .text._ZN9Cyg_ClockC2ENS_14cyg_resolutionE
                0x0000dfd4       0x48 ../lpc2106_install/lib/libtarget.a(kernel_clock.o)
                0x0000dfd4                _ZN9Cyg_ClockC2ENS_14cyg_resolutionE
 .text._ZN9Cyg_ClockC1ENS_14cyg_resolutionE
                0x0000e01c       0x48 ../lpc2106_install/lib/libtarget.a(kernel_clock.o)
                0x0000e01c                _ZN9Cyg_ClockC1ENS_14cyg_resolutionE
 .text._ZN9Cyg_ClockD2Ev
                0x0000e064       0x40 ../lpc2106_install/lib/libtarget.a(kernel_clock.o)
                0x0000e064                _ZN9Cyg_ClockD2Ev
 .text._ZN9Cyg_ClockD1Ev
                0x0000e0a4       0x40 ../lpc2106_install/lib/libtarget.a(kernel_clock.o)
                0x0000e0a4                _ZN9Cyg_ClockD1Ev
 .text._ZL19construct_converterPN9Cyg_Clock9converterEyyyy
                0x0000e0e4      0x958 ../lpc2106_install/lib/libtarget.a(kernel_clock.o)
 .text._ZN9Cyg_Clock28get_other_to_clock_converterEyPNS_9converterE
                0x0000ea3c       0x40 ../lpc2106_install/lib/libtarget.a(kernel_clock.o)
                0x0000ea3c                _ZN9Cyg_Clock28get_other_to_clock_converterEyPNS_9converterE
 .text._ZN9Cyg_Clock28get_clock_to_other_converterEyPNS_9converterE
                0x0000ea7c       0x40 ../lpc2106_install/lib/libtarget.a(kernel_clock.o)
                0x0000ea7c                _ZN9Cyg_Clock28get_clock_to_other_converterEyPNS_9converterE
 .text._ZN9Cyg_AlarmC2EP11Cyg_CounterPFvPS_jEj
                0x0000eabc       0x44 ../lpc2106_install/lib/libtarget.a(kernel_clock.o)
                0x0000eabc                _ZN9Cyg_AlarmC2EP11Cyg_CounterPFvPS_jEj
 .text._ZN9Cyg_AlarmC1EP11Cyg_CounterPFvPS_jEj
                0x0000eb00       0x44 ../lpc2106_install/lib/libtarget.a(kernel_clock.o)
                0x0000eb00                _ZN9Cyg_AlarmC1EP11Cyg_CounterPFvPS_jEj
 .text._ZN9Cyg_AlarmC2Ev
                0x0000eb44       0x10 ../lpc2106_install/lib/libtarget.a(kernel_clock.o)
                0x0000eb44                _ZN9Cyg_AlarmC2Ev
 .text._ZN9Cyg_AlarmC1Ev
                0x0000eb54       0x10 ../lpc2106_install/lib/libtarget.a(kernel_clock.o)
                0x0000eb54                _ZN9Cyg_AlarmC1Ev
 .text._ZN9Cyg_Alarm11synchronizeEv
                0x0000eb64       0x9c ../lpc2106_install/lib/libtarget.a(kernel_clock.o)
                0x0000eb64                _ZN9Cyg_Alarm11synchronizeEv
 .text._ZN11Cyg_Counter9add_alarmEP9Cyg_Alarm
                0x0000ec00       0xbc ../lpc2106_install/lib/libtarget.a(kernel_clock.o)
                0x0000ec00                _ZN11Cyg_Counter9add_alarmEP9Cyg_Alarm
 .text._ZN17Cyg_RealTimeClock3isrEjj
                0x0000ecbc       0x28 ../lpc2106_install/lib/libtarget.a(kernel_clock.o)
                0x0000ecbc                _ZN17Cyg_RealTimeClock3isrEjj
 .text._ZN17Cyg_RealTimeClockC1Ev
                0x0000ece4       0xa4 ../lpc2106_install/lib/libtarget.a(kernel_clock.o)
                0x0000ece4                _ZN17Cyg_RealTimeClockC1Ev
 .text._Z41__static_initialization_and_destruction_0ii
                0x0000ed88       0xa4 ../lpc2106_install/lib/libtarget.a(kernel_clock.o)
 .text._GLOBAL__D.14000__ZN9Cyg_Clock15real_time_clockE
                0x0000ee2c       0x10 ../lpc2106_install/lib/libtarget.a(kernel_clock.o)
 .text._GLOBAL__I.14000__ZN9Cyg_Clock15real_time_clockE
                0x0000ee3c       0x10 ../lpc2106_install/lib/libtarget.a(kernel_clock.o)
 .text._ZN17Cyg_RealTimeClockC2Ev
                0x0000ee4c       0xa4 ../lpc2106_install/lib/libtarget.a(kernel_clock.o)
                0x0000ee4c                _ZN17Cyg_RealTimeClockC2Ev
 .text._ZN9Cyg_Alarm10initializeEyy
                0x0000eef0       0x7c ../lpc2106_install/lib/libtarget.a(kernel_clock.o)
                0x0000eef0                _ZN9Cyg_Alarm10initializeEyy
 .text._ZN11Cyg_Counter4tickEj
                0x0000ef6c      0x164 ../lpc2106_install/lib/libtarget.a(kernel_clock.o)
                0x0000ef6c                _ZN11Cyg_Counter4tickEj
 .text._ZN17Cyg_RealTimeClock3dsrEjjj
                0x0000f0d0       0x24 ../lpc2106_install/lib/libtarget.a(kernel_clock.o)
                0x0000f0d0                _ZN17Cyg_RealTimeClock3dsrEjjj
 .text._ZN9Cyg_Alarm9get_timesEPyS0_
                0x0000f0f4       0x58 ../lpc2106_install/lib/libtarget.a(kernel_clock.o)
                0x0000f0f4                _ZN9Cyg_Alarm9get_timesEPyS0_
 .text._ZN9Cyg_Alarm7disableEv
                0x0000f14c       0x4c ../lpc2106_install/lib/libtarget.a(kernel_clock.o)
                0x0000f14c                _ZN9Cyg_Alarm7disableEv
 .text._ZN9Cyg_AlarmD1Ev
                0x0000f198       0x38 ../lpc2106_install/lib/libtarget.a(kernel_clock.o)
                0x0000f198                _ZN9Cyg_AlarmD1Ev
 .text._ZN9Cyg_AlarmD2Ev
                0x0000f1d0       0x38 ../lpc2106_install/lib/libtarget.a(kernel_clock.o)
                0x0000f1d0                _ZN9Cyg_AlarmD2Ev
 .text._ZN9Cyg_Alarm6enableEv
                0x0000f208       0x68 ../lpc2106_install/lib/libtarget.a(kernel_clock.o)
                0x0000f208                _ZN9Cyg_Alarm6enableEv
 .text          0x0000f270        0x0 ../lpc2106_install/lib/libtarget.a(services_memalloc_common_malloc.o)
 .text.free     0x0000f270      0x11c ../lpc2106_install/lib/libtarget.a(services_memalloc_common_malloc.o)
                0x0000f270                free
 .text.malloc   0x0000f38c       0x58 ../lpc2106_install/lib/libtarget.a(services_memalloc_common_malloc.o)
                0x0000f38c                malloc
 .text.calloc   0x0000f3e4       0x30 ../lpc2106_install/lib/libtarget.a(services_memalloc_common_malloc.o)
                0x0000f3e4                calloc
 .text.mallinfo
                0x0000f414      0x100 ../lpc2106_install/lib/libtarget.a(services_memalloc_common_malloc.o)
                0x0000f414                mallinfo
 .text.realloc  0x0000f514       0xc8 ../lpc2106_install/lib/libtarget.a(services_memalloc_common_malloc.o)
                0x0000f514                realloc
 .text          0x0000f5dc        0x0 ../lpc2106_install/lib/libtarget.a(services_memalloc_common_heaps.o)
 .text._Z41__static_initialization_and_destruction_0ii
                0x0000f5dc      0x128 ../lpc2106_install/lib/libtarget.a(services_memalloc_common_heaps.o)
 .text._GLOBAL__D.19900_cygmem_pool_heap1
                0x0000f704       0x10 ../lpc2106_install/lib/libtarget.a(services_memalloc_common_heaps.o)
 .text._GLOBAL__I.19900_cygmem_pool_heap1
                0x0000f714       0x10 ../lpc2106_install/lib/libtarget.a(services_memalloc_common_heaps.o)
 .text          0x0000f724        0x0 ../lpc2106_install/lib/libtarget.a(language_c_libc_startup_invokemain.o)
 .text.cyg_libc_invoke_main
                0x0000f724       0x28 ../lpc2106_install/lib/libtarget.a(language_c_libc_startup_invokemain.o)
                0x0000f724                cyg_libc_invoke_main
 .text          0x0000f74c        0x0 ../lpc2106_install/lib/libtarget.a(language_c_libc_stdio_fflush.o)
 .text.cyg_libc_stdio_flush_all_but
                0x0000f74c      0x180 ../lpc2106_install/lib/libtarget.a(language_c_libc_stdio_fflush.o)
                0x0000f74c                cyg_libc_stdio_flush_all_but
 .text.fflush   0x0000f8cc       0x6c ../lpc2106_install/lib/libtarget.a(language_c_libc_stdio_fflush.o)
                0x0000f8cc                fflush
 .text          0x0000f938        0x0 ../lpc2106_install/lib/libtarget.a(language_c_libc_stdio_setvbuf.o)
 .text.setvbuf  0x0000f938       0xe8 ../lpc2106_install/lib/libtarget.a(language_c_libc_stdio_setvbuf.o)
                0x0000f938                setvbuf
 .text          0x0000fa20        0x0 ../lpc2106_install/lib/libtarget.a(language_c_libc_stdio_stderr.o)
 .text._Z41__static_initialization_and_destruction_0ii
                0x0000fa20      0x128 ../lpc2106_install/lib/libtarget.a(language_c_libc_stdio_stderr.o)
 .text._GLOBAL__D.56002_cyg_libc_stdio_stderr
                0x0000fb48       0x10 ../lpc2106_install/lib/libtarget.a(language_c_libc_stdio_stderr.o)
 .text._GLOBAL__I.56002_cyg_libc_stdio_stderr
                0x0000fb58       0x10 ../lpc2106_install/lib/libtarget.a(language_c_libc_stdio_stderr.o)
 .text          0x0000fb68        0x0 ../lpc2106_install/lib/libtarget.a(language_c_libc_stdio_stdin.o)
 .text._Z41__static_initialization_and_destruction_0ii
                0x0000fb68      0x130 ../lpc2106_install/lib/libtarget.a(language_c_libc_stdio_stdin.o)
 .text._GLOBAL__D.56000_cyg_libc_stdio_stdin
                0x0000fc98       0x10 ../lpc2106_install/lib/libtarget.a(language_c_libc_stdio_stdin.o)
 .text._GLOBAL__I.56000_cyg_libc_stdio_stdin
                0x0000fca8       0x10 ../lpc2106_install/lib/libtarget.a(language_c_libc_stdio_stdin.o)
 .text          0x0000fcb8        0x0 ../lpc2106_install/lib/libtarget.a(language_c_libc_stdio_stdiofiles.o)
 .text._Z41__static_initialization_and_destruction_0ii
                0x0000fcb8       0x44 ../lpc2106_install/lib/libtarget.a(language_c_libc_stdio_stdiofiles.o)
 .text._GLOBAL__D.56000__ZN20Cyg_libc_stdio_files5filesE
                0x0000fcfc       0x10 ../lpc2106_install/lib/libtarget.a(language_c_libc_stdio_stdiofiles.o)
 .text._GLOBAL__I.56000__ZN20Cyg_libc_stdio_files5filesE
                0x0000fd0c       0x10 ../lpc2106_install/lib/libtarget.a(language_c_libc_stdio_stdiofiles.o)
 .text          0x0000fd1c        0x0 ../lpc2106_install/lib/libtarget.a(language_c_libc_stdio_stdiosupp.o)
 .text.Cyg_libc_stdio_find_filename
                0x0000fd1c       0x24 ../lpc2106_install/lib/libtarget.a(language_c_libc_stdio_stdiosupp.o)
                0x0000fd1c                Cyg_libc_stdio_find_filename
 .text          0x0000fd40        0x0 ../lpc2106_install/lib/libtarget.a(language_c_libc_stdio_ungetc.o)
 .text.ungetc   0x0000fd40       0x94 ../lpc2106_install/lib/libtarget.a(language_c_libc_stdio_ungetc.o)
                0x0000fd40                ungetc
 .text          0x0000fdd4        0x0 ../lpc2106_install/lib/libtarget.a(hal_arm_lpc2xxx_var_hal_diag.o)
 .text.cyg_hal_plf_serial_putc
                0x0000fdd4       0x1c ../lpc2106_install/lib/libtarget.a(hal_arm_lpc2xxx_var_hal_diag.o)
                0x0000fdd4                cyg_hal_plf_serial_putc
 .text.cyg_hal_plf_serial_getc
                0x0000fdf0       0x20 ../lpc2106_install/lib/libtarget.a(hal_arm_lpc2xxx_var_hal_diag.o)
                0x0000fdf0                cyg_hal_plf_serial_getc
 .text.cyg_hal_plf_serial_write
                0x0000fe10       0x44 ../lpc2106_install/lib/libtarget.a(hal_arm_lpc2xxx_var_hal_diag.o)
 .text.cyg_hal_plf_serial_read
                0x0000fe54       0x48 ../lpc2106_install/lib/libtarget.a(hal_arm_lpc2xxx_var_hal_diag.o)
 .text.cyg_hal_plf_serial_getc_timeout
                0x0000fe9c       0x84 ../lpc2106_install/lib/libtarget.a(hal_arm_lpc2xxx_var_hal_diag.o)
                0x0000fe9c                cyg_hal_plf_serial_getc_timeout
 .text.cyg_hal_plf_serial_init
                0x0000ff20       0xec ../lpc2106_install/lib/libtarget.a(hal_arm_lpc2xxx_var_hal_diag.o)
                0x0000ff20                cyg_hal_plf_serial_init
 .text.hal_diag_led
                0x0001000c        0x4 ../lpc2106_install/lib/libtarget.a(hal_arm_lpc2xxx_var_hal_diag.o)
                0x0001000c                hal_diag_led
 .text.cyg_hal_plf_serial_isr
                0x00010010       0x70 ../lpc2106_install/lib/libtarget.a(hal_arm_lpc2xxx_var_hal_diag.o)
 .text.cyg_hal_plf_serial_control
                0x00010080      0x108 ../lpc2106_install/lib/libtarget.a(hal_arm_lpc2xxx_var_hal_diag.o)
 .text          0x00010188        0x0 ../lpc2106_install/lib/libtarget.a(infra_memset.o)
 .text._memset  0x00010188       0xf0 ../lpc2106_install/lib/libtarget.a(infra_memset.o)
                0x00010188                _memset
                0x00010188                memset
 .text          0x00010278        0x0 ../lpc2106_install/lib/libtarget.a(services_memalloc_common_dlmalloc.o)
 .text._ZN35Cyg_Mempool_dlmalloc_ImplementationC2EPhij
                0x00010278       0x88 ../lpc2106_install/lib/libtarget.a(services_memalloc_common_dlmalloc.o)
                0x00010278                _ZN35Cyg_Mempool_dlmalloc_ImplementationC2EPhij
 .text._ZN35Cyg_Mempool_dlmalloc_ImplementationC1EPhij
                0x00010300       0x88 ../lpc2106_install/lib/libtarget.a(services_memalloc_common_dlmalloc.o)
                0x00010300                _ZN35Cyg_Mempool_dlmalloc_ImplementationC1EPhij
 .text._ZN35Cyg_Mempool_dlmalloc_Implementation9try_allocEi
                0x00010388      0x538 ../lpc2106_install/lib/libtarget.a(services_memalloc_common_dlmalloc.o)
                0x00010388                _ZN35Cyg_Mempool_dlmalloc_Implementation9try_allocEi
 .text._ZN35Cyg_Mempool_dlmalloc_Implementation4freeEPhi
                0x000108c0      0x260 ../lpc2106_install/lib/libtarget.a(services_memalloc_common_dlmalloc.o)
                0x000108c0                _ZN35Cyg_Mempool_dlmalloc_Implementation4freeEPhi
 .text._ZN35Cyg_Mempool_dlmalloc_Implementation10get_statusEtR18Cyg_Mempool_Status
                0x00010b20       0xd4 ../lpc2106_install/lib/libtarget.a(services_memalloc_common_dlmalloc.o)
                0x00010b20                _ZN35Cyg_Mempool_dlmalloc_Implementation10get_statusEtR18Cyg_Mempool_Status
 .text._ZN35Cyg_Mempool_dlmalloc_Implementation12resize_allocEPhiPi
                0x00010bf4      0x39c ../lpc2106_install/lib/libtarget.a(services_memalloc_common_dlmalloc.o)
                0x00010bf4                _ZN35Cyg_Mempool_dlmalloc_Implementation12resize_allocEPhiPi
 .text          0x00010f90        0x0 ../lpc2106_install/lib/libtarget.a(language_c_libc_startup_exit.o)
 .text.exit     0x00010f90       0x18 ../lpc2106_install/lib/libtarget.a(language_c_libc_startup_exit.o)
                0x00010f90                exit
 .text          0x00010fa8        0x0 ../lpc2106_install/lib/libtarget.a(language_c_libc_string_memmove.o)
 .text.__memmove
                0x00010fa8       0x74 ../lpc2106_install/lib/libtarget.a(language_c_libc_string_memmove.o)
                0x00010fa8                memmove
                0x00010fa8                __memmove
 .text          0x0001101c        0x0 ../lpc2106_install/lib/libtarget.a(language_c_libc_startup__exit.o)
 .text._exit    0x0001101c        0x8 ../lpc2106_install/lib/libtarget.a(language_c_libc_startup__exit.o)
                0x0001101c                _exit
 .text          0x00011024        0x0 ../lpc2106_install/lib/libtarget.a(language_c_libc_startup_atexit.o)
 .text.cyg_libc_invoke_atexit_handlers
                0x00011024       0x4c ../lpc2106_install/lib/libtarget.a(language_c_libc_startup_atexit.o)
                0x00011024                cyg_libc_invoke_atexit_handlers
 .text.atexit   0x00011070       0x30 ../lpc2106_install/lib/libtarget.a(language_c_libc_startup_atexit.o)
                0x00011070                atexit
 .text          0x000110a0      0x114 /home/psampaio/Develop/ecos/gnutools/arm-eabi/bin/../lib/gcc/arm-eabi/4.3.2/libgcc.a(_udivsi3.o)
                0x000110a0                __udivsi3
                0x000110a0                __aeabi_uidiv
                0x0001119c                __aeabi_uidivmod
 .text          0x000111b4      0x144 /home/psampaio/Develop/ecos/gnutools/arm-eabi/bin/../lib/gcc/arm-eabi/4.3.2/libgcc.a(_divsi3.o)
                0x000111b4                __aeabi_idiv
                0x000111b4                __divsi3
                0x000112e0                __aeabi_idivmod
 .text          0x000112f8        0x4 /home/psampaio/Develop/ecos/gnutools/arm-eabi/bin/../lib/gcc/arm-eabi/4.3.2/libgcc.a(_dvmd_tls.o)
                0x000112f8                __aeabi_ldiv0
                0x000112f8                __div0
                0x000112f8                __aeabi_idiv0
 .text          0x000112fc      0x41c /home/psampaio/Develop/ecos/gnutools/arm-eabi/bin/../lib/gcc/arm-eabi/4.3.2/libgcc.a(_addsubdf3.o)
                0x000116b8                __floatdidf
                0x0001163c                __floatsidf
                0x00011618                __aeabi_ui2d
                0x000112fc                __aeabi_drsub
                0x00011664                __extendsfdf2
                0x00011308                __adddf3
                0x00011618                __floatunsidf
                0x00011308                __aeabi_dadd
                0x000116a4                __aeabi_ul2d
                0x00011304                __aeabi_dsub
                0x000116a4                __floatundidf
                0x0001163c                __aeabi_i2d
                0x000116b8                __aeabi_l2d
                0x00011664                __aeabi_f2d
                0x00011304                __subdf3
 .text          0x00011718      0x49c /home/psampaio/Develop/ecos/gnutools/arm-eabi/bin/../lib/gcc/arm-eabi/4.3.2/libgcc.a(_muldivdf3.o)
                0x000119a8                __aeabi_ddiv
                0x00011718                __aeabi_dmul
                0x000119a8                __divdf3
                0x00011718                __muldf3
 .text          0x00011bb4      0x140 /home/psampaio/Develop/ecos/gnutools/arm-eabi/bin/../lib/gcc/arm-eabi/4.3.2/libgcc.a(_cmpdf2.o)
                0x00011cac                __aeabi_dcmple
                0x00011bc4                __cmpdf2
                0x00011bc4                __eqdf2
                0x00011bb4                __gtdf2
                0x00011c64                __aeabi_cdcmple
                0x00011c48                __aeabi_cdrcmple
                0x00011bbc                __ltdf2
                0x00011c94                __aeabi_dcmplt
                0x00011bbc                __ledf2
                0x00011cdc                __aeabi_dcmpgt
                0x00011cc4                __aeabi_dcmpge
                0x00011bc4                __nedf2
                0x00011c7c                __aeabi_dcmpeq
                0x00011c64                __aeabi_cdcmpeq
                0x00011bb4                __gedf2
 .text          0x00011cf4       0x38 /home/psampaio/Develop/ecos/gnutools/arm-eabi/bin/../lib/gcc/arm-eabi/4.3.2/libgcc.a(_unorddf2.o)
                0x00011cf4                __aeabi_dcmpun
                0x00011cf4                __unorddf2
 .text          0x00011d2c       0x5c /home/psampaio/Develop/ecos/gnutools/arm-eabi/bin/../lib/gcc/arm-eabi/4.3.2/libgcc.a(_fixdfsi.o)
                0x00011d2c                __fixdfsi
                0x00011d2c                __aeabi_d2iz
 .text          0x00011d88       0xa0 /home/psampaio/Develop/ecos/gnutools/arm-eabi/bin/../lib/gcc/arm-eabi/4.3.2/libgcc.a(_truncdfsf2.o)
                0x00011d88                __aeabi_d2f
                0x00011d88                __truncdfsf2
 .text          0x00011e28       0x1c /home/psampaio/Develop/ecos/gnutools/arm-eabi/bin/../lib/gcc/arm-eabi/4.3.2/libgcc.a(_aeabi_uldivmod.o)
                0x00011e28                __aeabi_uldivmod
 .text          0x00011e44       0x90 /home/psampaio/Develop/ecos/gnutools/arm-eabi/bin/../lib/gcc/arm-eabi/4.3.2/libgcc.a(bpabi.o)
                0x00011e44                __gnu_uldivmod_helper
                0x00011e8c                __gnu_ldivmod_helper
 .text          0x00011ed4      0x56c /home/psampaio/Develop/ecos/gnutools/arm-eabi/bin/../lib/gcc/arm-eabi/4.3.2/libgcc.a(_divdi3.o)
                0x00011ed4                __divdi3
 .text          0x00012440      0x4fc /home/psampaio/Develop/ecos/gnutools/arm-eabi/bin/../lib/gcc/arm-eabi/4.3.2/libgcc.a(_udivdi3.o)
                0x00012440                __udivdi3
 .text          0x0001293c        0x0 /home/psampaio/Develop/ecos/gnutools/arm-eabi/bin/../lib/gcc/arm-eabi/4.3.2/libgcc.a(_clz.o)
 *(.gnu.warning)
 *(.gnu.linkonce.t.*)
 *(.init)
 *(.glue_7)
 .glue_7        0x0001293c        0x0 ../lpc2106_install/lib/vectors.o
 .glue_7        0x0001293c        0x0 /tmp/cckwxeNr.o
 .glue_7        0x0001293c        0x0 ../lpc2106_install/lib/extras.o
 .glue_7        0x0001293c        0x0 ../lpc2106_install/lib/libtarget.a(hal_common_hal_if.o)
 .glue_7        0x0001293c        0x0 ../lpc2106_install/lib/libtarget.a(hal_common_hal_misc.o)
 .glue_7        0x0001293c        0x0 ../lpc2106_install/lib/libtarget.a(io_common_iosys.o)
 .glue_7        0x0001293c        0x0 ../lpc2106_install/lib/libtarget.a(infra_startup.o)
 .glue_7        0x0001293c        0x0 ../lpc2106_install/lib/libtarget.a(infra_prestart.o)
 .glue_7        0x0001293c        0x0 ../lpc2106_install/lib/libtarget.a(infra_pkgstart.o)
 .glue_7        0x0001293c        0x0 ../lpc2106_install/lib/libtarget.a(infra_userstart.o)
 .glue_7        0x0001293c        0x0 ../lpc2106_install/lib/libtarget.a(infra_diag.o)
 .glue_7        0x0001293c        0x0 ../lpc2106_install/lib/libtarget.a(kernel_kapi.o)
 .glue_7        0x0001293c        0x0 ../lpc2106_install/lib/libtarget.a(kernel_thread.o)
 .glue_7        0x0001293c        0x0 ../lpc2106_install/lib/libtarget.a(kernel_except.o)
 .glue_7        0x0001293c        0x0 ../lpc2106_install/lib/libtarget.a(kernel_intr.o)
 .glue_7        0x0001293c        0x0 ../lpc2106_install/lib/libtarget.a(kernel_mlqueue.o)
 .glue_7        0x0001293c        0x0 ../lpc2106_install/lib/libtarget.a(kernel_sched.o)
 .glue_7        0x0001293c        0x0 ../lpc2106_install/lib/libtarget.a(kernel_cnt_sem.o)
 .glue_7        0x0001293c        0x0 ../lpc2106_install/lib/libtarget.a(kernel_flag.o)
 .glue_7        0x0001293c        0x0 ../lpc2106_install/lib/libtarget.a(kernel_mbox.o)
 .glue_7        0x0001293c        0x0 ../lpc2106_install/lib/libtarget.a(kernel_mutex.o)
 .glue_7        0x0001293c        0x0 ../lpc2106_install/lib/libtarget.a(language_c_libc_startup_mainthread.o)
 .glue_7        0x0001293c        0x0 ../lpc2106_install/lib/libtarget.a(language_c_libc_stdio_stdioinlines.o)
 .glue_7        0x0001293c        0x0 ../lpc2106_install/lib/libtarget.a(language_c_libc_stdio_stdout.o)
 .glue_7        0x0001293c        0x0 ../lpc2106_install/lib/libtarget.a(language_c_libc_stdio_stream.o)
 .glue_7        0x0001293c        0x0 ../lpc2106_install/lib/libtarget.a(language_c_libc_stdio_streambuf.o)
 .glue_7        0x0001293c        0x0 ../lpc2106_install/lib/libtarget.a(language_c_libc_stdio_vsnprintf.o)
 .glue_7        0x0001293c        0x0 ../lpc2106_install/lib/libtarget.a(language_c_libc_stdio_vfscanf.o)
 .glue_7        0x0001293c        0x0 ../lpc2106_install/lib/libtarget.a(language_c_libc_stdio_fprintf.o)
 .glue_7        0x0001293c        0x0 ../lpc2106_install/lib/libtarget.a(language_c_libc_stdio_fputc.o)
 .glue_7        0x0001293c        0x0 ../lpc2106_install/lib/libtarget.a(language_c_libc_stdio_fputs.o)
 .glue_7        0x0001293c        0x0 ../lpc2106_install/lib/libtarget.a(language_c_libc_stdio_vfnprintf.o)
 .glue_7        0x0001293c        0x0 ../lpc2106_install/lib/libtarget.a(language_c_libc_stdlib_strtod.o)
 .glue_7        0x0001293c        0x0 ../lpc2106_install/lib/libtarget.a(language_c_libc_stdlib_strtol.o)
 .glue_7        0x0001293c        0x0 ../lpc2106_install/lib/libtarget.a(language_c_libc_stdlib_strtoul.o)
 .glue_7        0x0001293c        0x0 ../lpc2106_install/lib/libtarget.a(language_c_libc_stdlib_strtoll.o)
 .glue_7        0x0001293c        0x0 ../lpc2106_install/lib/libtarget.a(language_c_libc_stdlib_strtoull.o)
 .glue_7        0x0001293c        0x0 ../lpc2106_install/lib/libtarget.a(language_c_libc_string_memchr.o)
 .glue_7        0x0001293c        0x0 ../lpc2106_install/lib/libtarget.a(language_c_libc_string_strlen.o)
 .glue_7        0x0001293c        0x0 ../lpc2106_install/lib/libtarget.a(language_c_libc_string_strsuppt.o)
 .glue_7        0x0001293c        0x0 ../lpc2106_install/lib/libtarget.a(language_c_libm_infconst.o)
 .glue_7        0x0001293c        0x0 ../lpc2106_install/lib/libtarget.a(language_c_libm_s_modf.o)
 .glue_7        0x0001293c        0x0 ../lpc2106_install/lib/libtarget.a(error_strerror.o)
 .glue_7        0x0001293c        0x0 ../lpc2106_install/lib/libtarget.a(error_errno.o)
 .glue_7        0x0001293c        0x0 ../lpc2106_install/lib/libtarget.a(hal_arm_arch_hal_misc.o)
 .glue_7        0x0001293c        0x0 ../lpc2106_install/lib/libtarget.a(hal_arm_arch_context.o)
 .glue_7        0x0001293c        0x0 ../lpc2106_install/lib/libtarget.a(hal_arm_lpc2xxx_var_lpc2xxx_misc.o)
 .glue_7        0x0001293c        0x0 ../lpc2106_install/lib/libtarget.a(hal_arm_lpc2xxx_p2106_p2106_misc.o)
 .glue_7        0x0001293c        0x0 ../lpc2106_install/lib/libtarget.a(infra_memcpy.o)
 .glue_7        0x0001293c        0x0 ../lpc2106_install/lib/libtarget.a(infra_delete.o)
 .glue_7        0x0001293c        0x0 ../lpc2106_install/lib/libtarget.a(kernel_clock.o)
 .glue_7        0x0001293c        0x0 ../lpc2106_install/lib/libtarget.a(services_memalloc_common_malloc.o)
 .glue_7        0x0001293c        0x0 ../lpc2106_install/lib/libtarget.a(services_memalloc_common_heaps.o)
 .glue_7        0x0001293c        0x0 ../lpc2106_install/lib/libtarget.a(language_c_libc_startup_invokemain.o)
 .glue_7        0x0001293c        0x0 ../lpc2106_install/lib/libtarget.a(language_c_libc_stdio_fflush.o)
 .glue_7        0x0001293c        0x0 ../lpc2106_install/lib/libtarget.a(language_c_libc_stdio_setvbuf.o)
 .glue_7        0x0001293c        0x0 ../lpc2106_install/lib/libtarget.a(language_c_libc_stdio_stderr.o)
 .glue_7        0x0001293c        0x0 ../lpc2106_install/lib/libtarget.a(language_c_libc_stdio_stdin.o)
 .glue_7        0x0001293c        0x0 ../lpc2106_install/lib/libtarget.a(language_c_libc_stdio_stdiofiles.o)
 .glue_7        0x0001293c        0x0 ../lpc2106_install/lib/libtarget.a(language_c_libc_stdio_stdiosupp.o)
 .glue_7        0x0001293c        0x0 ../lpc2106_install/lib/libtarget.a(language_c_libc_stdio_ungetc.o)
 .glue_7        0x0001293c        0x0 ../lpc2106_install/lib/libtarget.a(hal_arm_lpc2xxx_var_hal_diag.o)
 .glue_7        0x0001293c        0x0 ../lpc2106_install/lib/libtarget.a(infra_memset.o)
 .glue_7        0x0001293c        0x0 ../lpc2106_install/lib/libtarget.a(services_memalloc_common_dlmalloc.o)
 .glue_7        0x0001293c        0x0 ../lpc2106_install/lib/libtarget.a(language_c_libc_startup_exit.o)
 .glue_7        0x0001293c        0x0 ../lpc2106_install/lib/libtarget.a(language_c_libc_string_memmove.o)
 .glue_7        0x0001293c        0x0 ../lpc2106_install/lib/libtarget.a(language_c_libc_startup__exit.o)
 .glue_7        0x0001293c        0x0 ../lpc2106_install/lib/libtarget.a(language_c_libc_startup_atexit.o)
 .glue_7        0x0001293c        0x0 /home/psampaio/Develop/ecos/gnutools/arm-eabi/bin/../lib/gcc/arm-eabi/4.3.2/libgcc.a(_udivsi3.o)
 .glue_7        0x0001293c        0x0 /home/psampaio/Develop/ecos/gnutools/arm-eabi/bin/../lib/gcc/arm-eabi/4.3.2/libgcc.a(_divsi3.o)
 .glue_7        0x0001293c        0x0 /home/psampaio/Develop/ecos/gnutools/arm-eabi/bin/../lib/gcc/arm-eabi/4.3.2/libgcc.a(_dvmd_tls.o)
 .glue_7        0x0001293c        0x0 /home/psampaio/Develop/ecos/gnutools/arm-eabi/bin/../lib/gcc/arm-eabi/4.3.2/libgcc.a(_addsubdf3.o)
 .glue_7        0x0001293c        0x0 /home/psampaio/Develop/ecos/gnutools/arm-eabi/bin/../lib/gcc/arm-eabi/4.3.2/libgcc.a(_muldivdf3.o)
 .glue_7        0x0001293c        0x0 /home/psampaio/Develop/ecos/gnutools/arm-eabi/bin/../lib/gcc/arm-eabi/4.3.2/libgcc.a(_cmpdf2.o)
 .glue_7        0x0001293c        0x0 /home/psampaio/Develop/ecos/gnutools/arm-eabi/bin/../lib/gcc/arm-eabi/4.3.2/libgcc.a(_unorddf2.o)
 .glue_7        0x0001293c        0x0 /home/psampaio/Develop/ecos/gnutools/arm-eabi/bin/../lib/gcc/arm-eabi/4.3.2/libgcc.a(_fixdfsi.o)
 .glue_7        0x0001293c        0x0 /home/psampaio/Develop/ecos/gnutools/arm-eabi/bin/../lib/gcc/arm-eabi/4.3.2/libgcc.a(_truncdfsf2.o)
 .glue_7        0x0001293c        0x0 /home/psampaio/Develop/ecos/gnutools/arm-eabi/bin/../lib/gcc/arm-eabi/4.3.2/libgcc.a(_aeabi_uldivmod.o)
 .glue_7        0x0001293c        0x0 /home/psampaio/Develop/ecos/gnutools/arm-eabi/bin/../lib/gcc/arm-eabi/4.3.2/libgcc.a(bpabi.o)
 .glue_7        0x0001293c        0x0 /home/psampaio/Develop/ecos/gnutools/arm-eabi/bin/../lib/gcc/arm-eabi/4.3.2/libgcc.a(_divdi3.o)
 .glue_7        0x0001293c        0x0 /home/psampaio/Develop/ecos/gnutools/arm-eabi/bin/../lib/gcc/arm-eabi/4.3.2/libgcc.a(_udivdi3.o)
 .glue_7        0x0001293c        0x0 /home/psampaio/Develop/ecos/gnutools/arm-eabi/bin/../lib/gcc/arm-eabi/4.3.2/libgcc.a(_clz.o)
 *(.glue_7t)
 .glue_7t       0x0001293c        0x0 ../lpc2106_install/lib/vectors.o
 .glue_7t       0x0001293c        0x0 /tmp/cckwxeNr.o
 .glue_7t       0x0001293c        0x0 ../lpc2106_install/lib/extras.o
 .glue_7t       0x0001293c        0x0 ../lpc2106_install/lib/libtarget.a(hal_common_hal_if.o)
 .glue_7t       0x0001293c        0x0 ../lpc2106_install/lib/libtarget.a(hal_common_hal_misc.o)
 .glue_7t       0x0001293c        0x0 ../lpc2106_install/lib/libtarget.a(io_common_iosys.o)
 .glue_7t       0x0001293c        0x0 ../lpc2106_install/lib/libtarget.a(infra_startup.o)
 .glue_7t       0x0001293c        0x0 ../lpc2106_install/lib/libtarget.a(infra_prestart.o)
 .glue_7t       0x0001293c        0x0 ../lpc2106_install/lib/libtarget.a(infra_pkgstart.o)
 .glue_7t       0x0001293c        0x0 ../lpc2106_install/lib/libtarget.a(infra_userstart.o)
 .glue_7t       0x0001293c        0x0 ../lpc2106_install/lib/libtarget.a(infra_diag.o)
 .glue_7t       0x0001293c        0x0 ../lpc2106_install/lib/libtarget.a(kernel_kapi.o)
 .glue_7t       0x0001293c        0x0 ../lpc2106_install/lib/libtarget.a(kernel_thread.o)
 .glue_7t       0x0001293c        0x0 ../lpc2106_install/lib/libtarget.a(kernel_except.o)
 .glue_7t       0x0001293c        0x0 ../lpc2106_install/lib/libtarget.a(kernel_intr.o)
 .glue_7t       0x0001293c        0x0 ../lpc2106_install/lib/libtarget.a(kernel_mlqueue.o)
 .glue_7t       0x0001293c        0x0 ../lpc2106_install/lib/libtarget.a(kernel_sched.o)
 .glue_7t       0x0001293c        0x0 ../lpc2106_install/lib/libtarget.a(kernel_cnt_sem.o)
 .glue_7t       0x0001293c        0x0 ../lpc2106_install/lib/libtarget.a(kernel_flag.o)
 .glue_7t       0x0001293c        0x0 ../lpc2106_install/lib/libtarget.a(kernel_mbox.o)
 .glue_7t       0x0001293c        0x0 ../lpc2106_install/lib/libtarget.a(kernel_mutex.o)
 .glue_7t       0x0001293c        0x0 ../lpc2106_install/lib/libtarget.a(language_c_libc_startup_mainthread.o)
 .glue_7t       0x0001293c        0x0 ../lpc2106_install/lib/libtarget.a(language_c_libc_stdio_stdioinlines.o)
 .glue_7t       0x0001293c        0x0 ../lpc2106_install/lib/libtarget.a(language_c_libc_stdio_stdout.o)
 .glue_7t       0x0001293c        0x0 ../lpc2106_install/lib/libtarget.a(language_c_libc_stdio_stream.o)
 .glue_7t       0x0001293c        0x0 ../lpc2106_install/lib/libtarget.a(language_c_libc_stdio_streambuf.o)
 .glue_7t       0x0001293c        0x0 ../lpc2106_install/lib/libtarget.a(language_c_libc_stdio_vsnprintf.o)
 .glue_7t       0x0001293c        0x0 ../lpc2106_install/lib/libtarget.a(language_c_libc_stdio_vfscanf.o)
 .glue_7t       0x0001293c        0x0 ../lpc2106_install/lib/libtarget.a(language_c_libc_stdio_fprintf.o)
 .glue_7t       0x0001293c        0x0 ../lpc2106_install/lib/libtarget.a(language_c_libc_stdio_fputc.o)
 .glue_7t       0x0001293c        0x0 ../lpc2106_install/lib/libtarget.a(language_c_libc_stdio_fputs.o)
 .glue_7t       0x0001293c        0x0 ../lpc2106_install/lib/libtarget.a(language_c_libc_stdio_vfnprintf.o)
 .glue_7t       0x0001293c        0x0 ../lpc2106_install/lib/libtarget.a(language_c_libc_stdlib_strtod.o)
 .glue_7t       0x0001293c        0x0 ../lpc2106_install/lib/libtarget.a(language_c_libc_stdlib_strtol.o)
 .glue_7t       0x0001293c        0x0 ../lpc2106_install/lib/libtarget.a(language_c_libc_stdlib_strtoul.o)
 .glue_7t       0x0001293c        0x0 ../lpc2106_install/lib/libtarget.a(language_c_libc_stdlib_strtoll.o)
 .glue_7t       0x0001293c        0x0 ../lpc2106_install/lib/libtarget.a(language_c_libc_stdlib_strtoull.o)
 .glue_7t       0x0001293c        0x0 ../lpc2106_install/lib/libtarget.a(language_c_libc_string_memchr.o)
 .glue_7t       0x0001293c        0x0 ../lpc2106_install/lib/libtarget.a(language_c_libc_string_strlen.o)
 .glue_7t       0x0001293c        0x0 ../lpc2106_install/lib/libtarget.a(language_c_libc_string_strsuppt.o)
 .glue_7t       0x0001293c        0x0 ../lpc2106_install/lib/libtarget.a(language_c_libm_infconst.o)
 .glue_7t       0x0001293c        0x0 ../lpc2106_install/lib/libtarget.a(language_c_libm_s_modf.o)
 .glue_7t       0x0001293c        0x0 ../lpc2106_install/lib/libtarget.a(error_strerror.o)
 .glue_7t       0x0001293c        0x0 ../lpc2106_install/lib/libtarget.a(error_errno.o)
 .glue_7t       0x0001293c        0x0 ../lpc2106_install/lib/libtarget.a(hal_arm_arch_hal_misc.o)
 .glue_7t       0x0001293c        0x0 ../lpc2106_install/lib/libtarget.a(hal_arm_arch_context.o)
 .glue_7t       0x0001293c        0x0 ../lpc2106_install/lib/libtarget.a(hal_arm_lpc2xxx_var_lpc2xxx_misc.o)
 .glue_7t       0x0001293c        0x0 ../lpc2106_install/lib/libtarget.a(hal_arm_lpc2xxx_p2106_p2106_misc.o)
 .glue_7t       0x0001293c        0x0 ../lpc2106_install/lib/libtarget.a(infra_memcpy.o)
 .glue_7t       0x0001293c        0x0 ../lpc2106_install/lib/libtarget.a(infra_delete.o)
 .glue_7t       0x0001293c        0x0 ../lpc2106_install/lib/libtarget.a(kernel_clock.o)
 .glue_7t       0x0001293c        0x0 ../lpc2106_install/lib/libtarget.a(services_memalloc_common_malloc.o)
 .glue_7t       0x0001293c        0x0 ../lpc2106_install/lib/libtarget.a(services_memalloc_common_heaps.o)
 .glue_7t       0x0001293c        0x0 ../lpc2106_install/lib/libtarget.a(language_c_libc_startup_invokemain.o)
 .glue_7t       0x0001293c        0x0 ../lpc2106_install/lib/libtarget.a(language_c_libc_stdio_fflush.o)
 .glue_7t       0x0001293c        0x0 ../lpc2106_install/lib/libtarget.a(language_c_libc_stdio_setvbuf.o)
 .glue_7t       0x0001293c        0x0 ../lpc2106_install/lib/libtarget.a(language_c_libc_stdio_stderr.o)
 .glue_7t       0x0001293c        0x0 ../lpc2106_install/lib/libtarget.a(language_c_libc_stdio_stdin.o)
 .glue_7t       0x0001293c        0x0 ../lpc2106_install/lib/libtarget.a(language_c_libc_stdio_stdiofiles.o)
 .glue_7t       0x0001293c        0x0 ../lpc2106_install/lib/libtarget.a(language_c_libc_stdio_stdiosupp.o)
 .glue_7t       0x0001293c        0x0 ../lpc2106_install/lib/libtarget.a(language_c_libc_stdio_ungetc.o)
 .glue_7t       0x0001293c        0x0 ../lpc2106_install/lib/libtarget.a(hal_arm_lpc2xxx_var_hal_diag.o)
 .glue_7t       0x0001293c        0x0 ../lpc2106_install/lib/libtarget.a(infra_memset.o)
 .glue_7t       0x0001293c        0x0 ../lpc2106_install/lib/libtarget.a(services_memalloc_common_dlmalloc.o)
 .glue_7t       0x0001293c        0x0 ../lpc2106_install/lib/libtarget.a(language_c_libc_startup_exit.o)
 .glue_7t       0x0001293c        0x0 ../lpc2106_install/lib/libtarget.a(language_c_libc_string_memmove.o)
 .glue_7t       0x0001293c        0x0 ../lpc2106_install/lib/libtarget.a(language_c_libc_startup__exit.o)
 .glue_7t       0x0001293c        0x0 ../lpc2106_install/lib/libtarget.a(language_c_libc_startup_atexit.o)
 .glue_7t       0x0001293c        0x0 /home/psampaio/Develop/ecos/gnutools/arm-eabi/bin/../lib/gcc/arm-eabi/4.3.2/libgcc.a(_udivsi3.o)
 .glue_7t       0x0001293c        0x0 /home/psampaio/Develop/ecos/gnutools/arm-eabi/bin/../lib/gcc/arm-eabi/4.3.2/libgcc.a(_divsi3.o)
 .glue_7t       0x0001293c        0x0 /home/psampaio/Develop/ecos/gnutools/arm-eabi/bin/../lib/gcc/arm-eabi/4.3.2/libgcc.a(_dvmd_tls.o)
 .glue_7t       0x0001293c        0x0 /home/psampaio/Develop/ecos/gnutools/arm-eabi/bin/../lib/gcc/arm-eabi/4.3.2/libgcc.a(_addsubdf3.o)
 .glue_7t       0x0001293c        0x0 /home/psampaio/Develop/ecos/gnutools/arm-eabi/bin/../lib/gcc/arm-eabi/4.3.2/libgcc.a(_muldivdf3.o)
 .glue_7t       0x0001293c        0x0 /home/psampaio/Develop/ecos/gnutools/arm-eabi/bin/../lib/gcc/arm-eabi/4.3.2/libgcc.a(_cmpdf2.o)
 .glue_7t       0x0001293c        0x0 /home/psampaio/Develop/ecos/gnutools/arm-eabi/bin/../lib/gcc/arm-eabi/4.3.2/libgcc.a(_unorddf2.o)
 .glue_7t       0x0001293c        0x0 /home/psampaio/Develop/ecos/gnutools/arm-eabi/bin/../lib/gcc/arm-eabi/4.3.2/libgcc.a(_fixdfsi.o)
 .glue_7t       0x0001293c        0x0 /home/psampaio/Develop/ecos/gnutools/arm-eabi/bin/../lib/gcc/arm-eabi/4.3.2/libgcc.a(_truncdfsf2.o)
 .glue_7t       0x0001293c        0x0 /home/psampaio/Develop/ecos/gnutools/arm-eabi/bin/../lib/gcc/arm-eabi/4.3.2/libgcc.a(_aeabi_uldivmod.o)
 .glue_7t       0x0001293c        0x0 /home/psampaio/Develop/ecos/gnutools/arm-eabi/bin/../lib/gcc/arm-eabi/4.3.2/libgcc.a(bpabi.o)
 .glue_7t       0x0001293c        0x0 /home/psampaio/Develop/ecos/gnutools/arm-eabi/bin/../lib/gcc/arm-eabi/4.3.2/libgcc.a(_divdi3.o)
 .glue_7t       0x0001293c        0x0 /home/psampaio/Develop/ecos/gnutools/arm-eabi/bin/../lib/gcc/arm-eabi/4.3.2/libgcc.a(_udivdi3.o)
 .glue_7t       0x0001293c        0x0 /home/psampaio/Develop/ecos/gnutools/arm-eabi/bin/../lib/gcc/arm-eabi/4.3.2/libgcc.a(_clz.o)
                0x0001293c                __CTOR_LIST__ = ABSOLUTE (.)
 *(SORT(.ctors*))
                0x0001293c                __CTOR_END__ = ABSOLUTE (.)
                0x0001293c                __DTOR_LIST__ = ABSOLUTE (.)
 *(SORT(.dtors*))
                0x0001293c                __DTOR_END__ = ABSOLUTE (.)
                0x0001293c                _etext = .
                0x0001293c                PROVIDE (__etext, .)

.vfp11_veneer   0x0001293c        0x0
 .vfp11_veneer  0x0001293c        0x0 ../lpc2106_install/lib/vectors.o
 .vfp11_veneer  0x0001293c        0x0 /tmp/cckwxeNr.o
 .vfp11_veneer  0x0001293c        0x0 ../lpc2106_install/lib/extras.o
 .vfp11_veneer  0x0001293c        0x0 ../lpc2106_install/lib/libtarget.a(hal_common_hal_if.o)
 .vfp11_veneer  0x0001293c        0x0 ../lpc2106_install/lib/libtarget.a(hal_common_hal_misc.o)
 .vfp11_veneer  0x0001293c        0x0 ../lpc2106_install/lib/libtarget.a(io_common_iosys.o)
 .vfp11_veneer  0x0001293c        0x0 ../lpc2106_install/lib/libtarget.a(infra_startup.o)
 .vfp11_veneer  0x0001293c        0x0 ../lpc2106_install/lib/libtarget.a(infra_prestart.o)
 .vfp11_veneer  0x0001293c        0x0 ../lpc2106_install/lib/libtarget.a(infra_pkgstart.o)
 .vfp11_veneer  0x0001293c        0x0 ../lpc2106_install/lib/libtarget.a(infra_userstart.o)
 .vfp11_veneer  0x0001293c        0x0 ../lpc2106_install/lib/libtarget.a(infra_diag.o)
 .vfp11_veneer  0x0001293c        0x0 ../lpc2106_install/lib/libtarget.a(kernel_kapi.o)
 .vfp11_veneer  0x0001293c        0x0 ../lpc2106_install/lib/libtarget.a(kernel_thread.o)
 .vfp11_veneer  0x0001293c        0x0 ../lpc2106_install/lib/libtarget.a(kernel_except.o)
 .vfp11_veneer  0x0001293c        0x0 ../lpc2106_install/lib/libtarget.a(kernel_intr.o)
 .vfp11_veneer  0x0001293c        0x0 ../lpc2106_install/lib/libtarget.a(kernel_mlqueue.o)
 .vfp11_veneer  0x0001293c        0x0 ../lpc2106_install/lib/libtarget.a(kernel_sched.o)
 .vfp11_veneer  0x0001293c        0x0 ../lpc2106_install/lib/libtarget.a(kernel_cnt_sem.o)
 .vfp11_veneer  0x0001293c        0x0 ../lpc2106_install/lib/libtarget.a(kernel_flag.o)
 .vfp11_veneer  0x0001293c        0x0 ../lpc2106_install/lib/libtarget.a(kernel_mbox.o)
 .vfp11_veneer  0x0001293c        0x0 ../lpc2106_install/lib/libtarget.a(kernel_mutex.o)
 .vfp11_veneer  0x0001293c        0x0 ../lpc2106_install/lib/libtarget.a(language_c_libc_startup_mainthread.o)
 .vfp11_veneer  0x0001293c        0x0 ../lpc2106_install/lib/libtarget.a(language_c_libc_stdio_stdioinlines.o)
 .vfp11_veneer  0x0001293c        0x0 ../lpc2106_install/lib/libtarget.a(language_c_libc_stdio_stdout.o)
 .vfp11_veneer  0x0001293c        0x0 ../lpc2106_install/lib/libtarget.a(language_c_libc_stdio_stream.o)
 .vfp11_veneer  0x0001293c        0x0 ../lpc2106_install/lib/libtarget.a(language_c_libc_stdio_streambuf.o)
 .vfp11_veneer  0x0001293c        0x0 ../lpc2106_install/lib/libtarget.a(language_c_libc_stdio_vsnprintf.o)
 .vfp11_veneer  0x0001293c        0x0 ../lpc2106_install/lib/libtarget.a(language_c_libc_stdio_vfscanf.o)
 .vfp11_veneer  0x0001293c        0x0 ../lpc2106_install/lib/libtarget.a(language_c_libc_stdio_fprintf.o)
 .vfp11_veneer  0x0001293c        0x0 ../lpc2106_install/lib/libtarget.a(language_c_libc_stdio_fputc.o)
 .vfp11_veneer  0x0001293c        0x0 ../lpc2106_install/lib/libtarget.a(language_c_libc_stdio_fputs.o)
 .vfp11_veneer  0x0001293c        0x0 ../lpc2106_install/lib/libtarget.a(language_c_libc_stdio_vfnprintf.o)
 .vfp11_veneer  0x0001293c        0x0 ../lpc2106_install/lib/libtarget.a(language_c_libc_stdlib_strtod.o)
 .vfp11_veneer  0x0001293c        0x0 ../lpc2106_install/lib/libtarget.a(language_c_libc_stdlib_strtol.o)
 .vfp11_veneer  0x0001293c        0x0 ../lpc2106_install/lib/libtarget.a(language_c_libc_stdlib_strtoul.o)
 .vfp11_veneer  0x0001293c        0x0 ../lpc2106_install/lib/libtarget.a(language_c_libc_stdlib_strtoll.o)
 .vfp11_veneer  0x0001293c        0x0 ../lpc2106_install/lib/libtarget.a(language_c_libc_stdlib_strtoull.o)
 .vfp11_veneer  0x0001293c        0x0 ../lpc2106_install/lib/libtarget.a(language_c_libc_string_memchr.o)
 .vfp11_veneer  0x0001293c        0x0 ../lpc2106_install/lib/libtarget.a(language_c_libc_string_strlen.o)
 .vfp11_veneer  0x0001293c        0x0 ../lpc2106_install/lib/libtarget.a(language_c_libc_string_strsuppt.o)
 .vfp11_veneer  0x0001293c        0x0 ../lpc2106_install/lib/libtarget.a(language_c_libm_infconst.o)
 .vfp11_veneer  0x0001293c        0x0 ../lpc2106_install/lib/libtarget.a(language_c_libm_s_modf.o)
 .vfp11_veneer  0x0001293c        0x0 ../lpc2106_install/lib/libtarget.a(error_strerror.o)
 .vfp11_veneer  0x0001293c        0x0 ../lpc2106_install/lib/libtarget.a(error_errno.o)
 .vfp11_veneer  0x0001293c        0x0 ../lpc2106_install/lib/libtarget.a(hal_arm_arch_hal_misc.o)
 .vfp11_veneer  0x0001293c        0x0 ../lpc2106_install/lib/libtarget.a(hal_arm_arch_context.o)
 .vfp11_veneer  0x0001293c        0x0 ../lpc2106_install/lib/libtarget.a(hal_arm_lpc2xxx_var_lpc2xxx_misc.o)
 .vfp11_veneer  0x0001293c        0x0 ../lpc2106_install/lib/libtarget.a(hal_arm_lpc2xxx_p2106_p2106_misc.o)
 .vfp11_veneer  0x0001293c        0x0 ../lpc2106_install/lib/libtarget.a(infra_memcpy.o)
 .vfp11_veneer  0x0001293c        0x0 ../lpc2106_install/lib/libtarget.a(infra_delete.o)
 .vfp11_veneer  0x0001293c        0x0 ../lpc2106_install/lib/libtarget.a(kernel_clock.o)
 .vfp11_veneer  0x0001293c        0x0 ../lpc2106_install/lib/libtarget.a(services_memalloc_common_malloc.o)
 .vfp11_veneer  0x0001293c        0x0 ../lpc2106_install/lib/libtarget.a(services_memalloc_common_heaps.o)
 .vfp11_veneer  0x0001293c        0x0 ../lpc2106_install/lib/libtarget.a(language_c_libc_startup_invokemain.o)
 .vfp11_veneer  0x0001293c        0x0 ../lpc2106_install/lib/libtarget.a(language_c_libc_stdio_fflush.o)
 .vfp11_veneer  0x0001293c        0x0 ../lpc2106_install/lib/libtarget.a(language_c_libc_stdio_setvbuf.o)
 .vfp11_veneer  0x0001293c        0x0 ../lpc2106_install/lib/libtarget.a(language_c_libc_stdio_stderr.o)
 .vfp11_veneer  0x0001293c        0x0 ../lpc2106_install/lib/libtarget.a(language_c_libc_stdio_stdin.o)
 .vfp11_veneer  0x0001293c        0x0 ../lpc2106_install/lib/libtarget.a(language_c_libc_stdio_stdiofiles.o)
 .vfp11_veneer  0x0001293c        0x0 ../lpc2106_install/lib/libtarget.a(language_c_libc_stdio_stdiosupp.o)
 .vfp11_veneer  0x0001293c        0x0 ../lpc2106_install/lib/libtarget.a(language_c_libc_stdio_ungetc.o)
 .vfp11_veneer  0x0001293c        0x0 ../lpc2106_install/lib/libtarget.a(hal_arm_lpc2xxx_var_hal_diag.o)
 .vfp11_veneer  0x0001293c        0x0 ../lpc2106_install/lib/libtarget.a(infra_memset.o)
 .vfp11_veneer  0x0001293c        0x0 ../lpc2106_install/lib/libtarget.a(services_memalloc_common_dlmalloc.o)
 .vfp11_veneer  0x0001293c        0x0 ../lpc2106_install/lib/libtarget.a(language_c_libc_startup_exit.o)
 .vfp11_veneer  0x0001293c        0x0 ../lpc2106_install/lib/libtarget.a(language_c_libc_string_memmove.o)
 .vfp11_veneer  0x0001293c        0x0 ../lpc2106_install/lib/libtarget.a(language_c_libc_startup__exit.o)
 .vfp11_veneer  0x0001293c        0x0 ../lpc2106_install/lib/libtarget.a(language_c_libc_startup_atexit.o)
 .vfp11_veneer  0x0001293c        0x0 /home/psampaio/Develop/ecos/gnutools/arm-eabi/bin/../lib/gcc/arm-eabi/4.3.2/libgcc.a(_udivsi3.o)
 .vfp11_veneer  0x0001293c        0x0 /home/psampaio/Develop/ecos/gnutools/arm-eabi/bin/../lib/gcc/arm-eabi/4.3.2/libgcc.a(_divsi3.o)
 .vfp11_veneer  0x0001293c        0x0 /home/psampaio/Develop/ecos/gnutools/arm-eabi/bin/../lib/gcc/arm-eabi/4.3.2/libgcc.a(_dvmd_tls.o)
 .vfp11_veneer  0x0001293c        0x0 /home/psampaio/Develop/ecos/gnutools/arm-eabi/bin/../lib/gcc/arm-eabi/4.3.2/libgcc.a(_addsubdf3.o)
 .vfp11_veneer  0x0001293c        0x0 /home/psampaio/Develop/ecos/gnutools/arm-eabi/bin/../lib/gcc/arm-eabi/4.3.2/libgcc.a(_muldivdf3.o)
 .vfp11_veneer  0x0001293c        0x0 /home/psampaio/Develop/ecos/gnutools/arm-eabi/bin/../lib/gcc/arm-eabi/4.3.2/libgcc.a(_cmpdf2.o)
 .vfp11_veneer  0x0001293c        0x0 /home/psampaio/Develop/ecos/gnutools/arm-eabi/bin/../lib/gcc/arm-eabi/4.3.2/libgcc.a(_unorddf2.o)
 .vfp11_veneer  0x0001293c        0x0 /home/psampaio/Develop/ecos/gnutools/arm-eabi/bin/../lib/gcc/arm-eabi/4.3.2/libgcc.a(_fixdfsi.o)
 .vfp11_veneer  0x0001293c        0x0 /home/psampaio/Develop/ecos/gnutools/arm-eabi/bin/../lib/gcc/arm-eabi/4.3.2/libgcc.a(_truncdfsf2.o)
 .vfp11_veneer  0x0001293c        0x0 /home/psampaio/Develop/ecos/gnutools/arm-eabi/bin/../lib/gcc/arm-eabi/4.3.2/libgcc.a(_aeabi_uldivmod.o)
 .vfp11_veneer  0x0001293c        0x0 /home/psampaio/Develop/ecos/gnutools/arm-eabi/bin/../lib/gcc/arm-eabi/4.3.2/libgcc.a(bpabi.o)
 .vfp11_veneer  0x0001293c        0x0 /home/psampaio/Develop/ecos/gnutools/arm-eabi/bin/../lib/gcc/arm-eabi/4.3.2/libgcc.a(_divdi3.o)
 .vfp11_veneer  0x0001293c        0x0 /home/psampaio/Develop/ecos/gnutools/arm-eabi/bin/../lib/gcc/arm-eabi/4.3.2/libgcc.a(_udivdi3.o)
 .vfp11_veneer  0x0001293c        0x0 /home/psampaio/Develop/ecos/gnutools/arm-eabi/bin/../lib/gcc/arm-eabi/4.3.2/libgcc.a(_clz.o)

.v4_bx          0x0001293c        0x0
 .v4_bx         0x0001293c        0x0 ../lpc2106_install/lib/vectors.o
 .v4_bx         0x0001293c        0x0 /tmp/cckwxeNr.o
 .v4_bx         0x0001293c        0x0 ../lpc2106_install/lib/extras.o
 .v4_bx         0x0001293c        0x0 ../lpc2106_install/lib/libtarget.a(hal_common_hal_if.o)
 .v4_bx         0x0001293c        0x0 ../lpc2106_install/lib/libtarget.a(hal_common_hal_misc.o)
 .v4_bx         0x0001293c        0x0 ../lpc2106_install/lib/libtarget.a(io_common_iosys.o)
 .v4_bx         0x0001293c        0x0 ../lpc2106_install/lib/libtarget.a(infra_startup.o)
 .v4_bx         0x0001293c        0x0 ../lpc2106_install/lib/libtarget.a(infra_prestart.o)
 .v4_bx         0x0001293c        0x0 ../lpc2106_install/lib/libtarget.a(infra_pkgstart.o)
 .v4_bx         0x0001293c        0x0 ../lpc2106_install/lib/libtarget.a(infra_userstart.o)
 .v4_bx         0x0001293c        0x0 ../lpc2106_install/lib/libtarget.a(infra_diag.o)
 .v4_bx         0x0001293c        0x0 ../lpc2106_install/lib/libtarget.a(kernel_kapi.o)
 .v4_bx         0x0001293c        0x0 ../lpc2106_install/lib/libtarget.a(kernel_thread.o)
 .v4_bx         0x0001293c        0x0 ../lpc2106_install/lib/libtarget.a(kernel_except.o)
 .v4_bx         0x0001293c        0x0 ../lpc2106_install/lib/libtarget.a(kernel_intr.o)
 .v4_bx         0x0001293c        0x0 ../lpc2106_install/lib/libtarget.a(kernel_mlqueue.o)
 .v4_bx         0x0001293c        0x0 ../lpc2106_install/lib/libtarget.a(kernel_sched.o)
 .v4_bx         0x0001293c        0x0 ../lpc2106_install/lib/libtarget.a(kernel_cnt_sem.o)
 .v4_bx         0x0001293c        0x0 ../lpc2106_install/lib/libtarget.a(kernel_flag.o)
 .v4_bx         0x0001293c        0x0 ../lpc2106_install/lib/libtarget.a(kernel_mbox.o)
 .v4_bx         0x0001293c        0x0 ../lpc2106_install/lib/libtarget.a(kernel_mutex.o)
 .v4_bx         0x0001293c        0x0 ../lpc2106_install/lib/libtarget.a(language_c_libc_startup_mainthread.o)
 .v4_bx         0x0001293c        0x0 ../lpc2106_install/lib/libtarget.a(language_c_libc_stdio_stdioinlines.o)
 .v4_bx         0x0001293c        0x0 ../lpc2106_install/lib/libtarget.a(language_c_libc_stdio_stdout.o)
 .v4_bx         0x0001293c        0x0 ../lpc2106_install/lib/libtarget.a(language_c_libc_stdio_stream.o)
 .v4_bx         0x0001293c        0x0 ../lpc2106_install/lib/libtarget.a(language_c_libc_stdio_streambuf.o)
 .v4_bx         0x0001293c        0x0 ../lpc2106_install/lib/libtarget.a(language_c_libc_stdio_vsnprintf.o)
 .v4_bx         0x0001293c        0x0 ../lpc2106_install/lib/libtarget.a(language_c_libc_stdio_vfscanf.o)
 .v4_bx         0x0001293c        0x0 ../lpc2106_install/lib/libtarget.a(language_c_libc_stdio_fprintf.o)
 .v4_bx         0x0001293c        0x0 ../lpc2106_install/lib/libtarget.a(language_c_libc_stdio_fputc.o)
 .v4_bx         0x0001293c        0x0 ../lpc2106_install/lib/libtarget.a(language_c_libc_stdio_fputs.o)
 .v4_bx         0x0001293c        0x0 ../lpc2106_install/lib/libtarget.a(language_c_libc_stdio_vfnprintf.o)
 .v4_bx         0x0001293c        0x0 ../lpc2106_install/lib/libtarget.a(language_c_libc_stdlib_strtod.o)
 .v4_bx         0x0001293c        0x0 ../lpc2106_install/lib/libtarget.a(language_c_libc_stdlib_strtol.o)
 .v4_bx         0x0001293c        0x0 ../lpc2106_install/lib/libtarget.a(language_c_libc_stdlib_strtoul.o)
 .v4_bx         0x0001293c        0x0 ../lpc2106_install/lib/libtarget.a(language_c_libc_stdlib_strtoll.o)
 .v4_bx         0x0001293c        0x0 ../lpc2106_install/lib/libtarget.a(language_c_libc_stdlib_strtoull.o)
 .v4_bx         0x0001293c        0x0 ../lpc2106_install/lib/libtarget.a(language_c_libc_string_memchr.o)
 .v4_bx         0x0001293c        0x0 ../lpc2106_install/lib/libtarget.a(language_c_libc_string_strlen.o)
 .v4_bx         0x0001293c        0x0 ../lpc2106_install/lib/libtarget.a(language_c_libc_string_strsuppt.o)
 .v4_bx         0x0001293c        0x0 ../lpc2106_install/lib/libtarget.a(language_c_libm_infconst.o)
 .v4_bx         0x0001293c        0x0 ../lpc2106_install/lib/libtarget.a(language_c_libm_s_modf.o)
 .v4_bx         0x0001293c        0x0 ../lpc2106_install/lib/libtarget.a(error_strerror.o)
 .v4_bx         0x0001293c        0x0 ../lpc2106_install/lib/libtarget.a(error_errno.o)
 .v4_bx         0x0001293c        0x0 ../lpc2106_install/lib/libtarget.a(hal_arm_arch_hal_misc.o)
 .v4_bx         0x0001293c        0x0 ../lpc2106_install/lib/libtarget.a(hal_arm_arch_context.o)
 .v4_bx         0x0001293c        0x0 ../lpc2106_install/lib/libtarget.a(hal_arm_lpc2xxx_var_lpc2xxx_misc.o)
 .v4_bx         0x0001293c        0x0 ../lpc2106_install/lib/libtarget.a(hal_arm_lpc2xxx_p2106_p2106_misc.o)
 .v4_bx         0x0001293c        0x0 ../lpc2106_install/lib/libtarget.a(infra_memcpy.o)
 .v4_bx         0x0001293c        0x0 ../lpc2106_install/lib/libtarget.a(infra_delete.o)
 .v4_bx         0x0001293c        0x0 ../lpc2106_install/lib/libtarget.a(kernel_clock.o)
 .v4_bx         0x0001293c        0x0 ../lpc2106_install/lib/libtarget.a(services_memalloc_common_malloc.o)
 .v4_bx         0x0001293c        0x0 ../lpc2106_install/lib/libtarget.a(services_memalloc_common_heaps.o)
 .v4_bx         0x0001293c        0x0 ../lpc2106_install/lib/libtarget.a(language_c_libc_startup_invokemain.o)
 .v4_bx         0x0001293c        0x0 ../lpc2106_install/lib/libtarget.a(language_c_libc_stdio_fflush.o)
 .v4_bx         0x0001293c        0x0 ../lpc2106_install/lib/libtarget.a(language_c_libc_stdio_setvbuf.o)
 .v4_bx         0x0001293c        0x0 ../lpc2106_install/lib/libtarget.a(language_c_libc_stdio_stderr.o)
 .v4_bx         0x0001293c        0x0 ../lpc2106_install/lib/libtarget.a(language_c_libc_stdio_stdin.o)
 .v4_bx         0x0001293c        0x0 ../lpc2106_install/lib/libtarget.a(language_c_libc_stdio_stdiofiles.o)
 .v4_bx         0x0001293c        0x0 ../lpc2106_install/lib/libtarget.a(language_c_libc_stdio_stdiosupp.o)
 .v4_bx         0x0001293c        0x0 ../lpc2106_install/lib/libtarget.a(language_c_libc_stdio_ungetc.o)
 .v4_bx         0x0001293c        0x0 ../lpc2106_install/lib/libtarget.a(hal_arm_lpc2xxx_var_hal_diag.o)
 .v4_bx         0x0001293c        0x0 ../lpc2106_install/lib/libtarget.a(infra_memset.o)
 .v4_bx         0x0001293c        0x0 ../lpc2106_install/lib/libtarget.a(services_memalloc_common_dlmalloc.o)
 .v4_bx         0x0001293c        0x0 ../lpc2106_install/lib/libtarget.a(language_c_libc_startup_exit.o)
 .v4_bx         0x0001293c        0x0 ../lpc2106_install/lib/libtarget.a(language_c_libc_string_memmove.o)
 .v4_bx         0x0001293c        0x0 ../lpc2106_install/lib/libtarget.a(language_c_libc_startup__exit.o)
 .v4_bx         0x0001293c        0x0 ../lpc2106_install/lib/libtarget.a(language_c_libc_startup_atexit.o)
 .v4_bx         0x0001293c        0x0 /home/psampaio/Develop/ecos/gnutools/arm-eabi/bin/../lib/gcc/arm-eabi/4.3.2/libgcc.a(_udivsi3.o)
 .v4_bx         0x0001293c        0x0 /home/psampaio/Develop/ecos/gnutools/arm-eabi/bin/../lib/gcc/arm-eabi/4.3.2/libgcc.a(_divsi3.o)
 .v4_bx         0x0001293c        0x0 /home/psampaio/Develop/ecos/gnutools/arm-eabi/bin/../lib/gcc/arm-eabi/4.3.2/libgcc.a(_dvmd_tls.o)
 .v4_bx         0x0001293c        0x0 /home/psampaio/Develop/ecos/gnutools/arm-eabi/bin/../lib/gcc/arm-eabi/4.3.2/libgcc.a(_addsubdf3.o)
 .v4_bx         0x0001293c        0x0 /home/psampaio/Develop/ecos/gnutools/arm-eabi/bin/../lib/gcc/arm-eabi/4.3.2/libgcc.a(_muldivdf3.o)
 .v4_bx         0x0001293c        0x0 /home/psampaio/Develop/ecos/gnutools/arm-eabi/bin/../lib/gcc/arm-eabi/4.3.2/libgcc.a(_cmpdf2.o)
 .v4_bx         0x0001293c        0x0 /home/psampaio/Develop/ecos/gnutools/arm-eabi/bin/../lib/gcc/arm-eabi/4.3.2/libgcc.a(_unorddf2.o)
 .v4_bx         0x0001293c        0x0 /home/psampaio/Develop/ecos/gnutools/arm-eabi/bin/../lib/gcc/arm-eabi/4.3.2/libgcc.a(_fixdfsi.o)
 .v4_bx         0x0001293c        0x0 /home/psampaio/Develop/ecos/gnutools/arm-eabi/bin/../lib/gcc/arm-eabi/4.3.2/libgcc.a(_truncdfsf2.o)
 .v4_bx         0x0001293c        0x0 /home/psampaio/Develop/ecos/gnutools/arm-eabi/bin/../lib/gcc/arm-eabi/4.3.2/libgcc.a(_aeabi_uldivmod.o)
 .v4_bx         0x0001293c        0x0 /home/psampaio/Develop/ecos/gnutools/arm-eabi/bin/../lib/gcc/arm-eabi/4.3.2/libgcc.a(bpabi.o)
 .v4_bx         0x0001293c        0x0 /home/psampaio/Develop/ecos/gnutools/arm-eabi/bin/../lib/gcc/arm-eabi/4.3.2/libgcc.a(_divdi3.o)
 .v4_bx         0x0001293c        0x0 /home/psampaio/Develop/ecos/gnutools/arm-eabi/bin/../lib/gcc/arm-eabi/4.3.2/libgcc.a(_udivdi3.o)
 .v4_bx         0x0001293c        0x0 /home/psampaio/Develop/ecos/gnutools/arm-eabi/bin/../lib/gcc/arm-eabi/4.3.2/libgcc.a(_clz.o)

.fini           0x0001293c        0x0
                0x0001293c                . = .
 *(.fini)

.rodata         0x0001293c      0x964
                0x0001293c                . = .
 *(.rodata*)
 .rodata        0x0001293c       0x14 /tmp/cckwxeNr.o
 .rodata.str1.4
                0x00012950       0x25 ../lpc2106_install/lib/extras.o
                                 0x3c (size before relaxing)
 *fill*         0x00012975        0x3 00
 .rodata.__FUNCTION__.2650
                0x00012978       0x14 ../lpc2106_install/lib/extras.o
 .rodata.hex.1865
                0x0001298c       0x14 ../lpc2106_install/lib/libtarget.a(hal_common_hal_if.o)
 .rodata.str1.4
                0x000129a0       0xb2 ../lpc2106_install/lib/libtarget.a(infra_diag.o)
                                 0xc0 (size before relaxing)
 *fill*         0x00012a52        0x2 00
 .rodata.str1.4
                0x00012a54        0xc ../lpc2106_install/lib/libtarget.a(kernel_thread.o)
 .rodata.str1.4
                0x00012a60        0x5 ../lpc2106_install/lib/libtarget.a(language_c_libc_startup_mainthread.o)
                                  0x8 (size before relaxing)
 *fill*         0x00012a65        0x3 00
 .rodata.str1.4
                0x00012a68        0x8 ../lpc2106_install/lib/libtarget.a(language_c_libc_stdio_stdioinlines.o)
 .rodata.str1.4
                0x00000000       0x10 ../lpc2106_install/lib/libtarget.a(language_c_libc_stdio_stdout.o)
 .rodata.stdout
                0x00012a70        0x4 ../lpc2106_install/lib/libtarget.a(language_c_libc_stdio_stdout.o)
                0x00012a70                stdout
 *fill*         0x00012a74        0x4 00
 .rodata._ZTV15Cyg_StdioStream
                0x00012a78       0x18 ../lpc2106_install/lib/libtarget.a(language_c_libc_stdio_stream.o)
                0x00012a78                _ZTV15Cyg_StdioStream
 .rodata._ZTV16Cyg_OutputStream
                0x00012a90       0x18 ../lpc2106_install/lib/libtarget.a(language_c_libc_stdio_stream.o)
                0x00012a90                _ZTV16Cyg_OutputStream
 .rodata._ZTV19Cyg_VsnprintfStream
                0x00012aa8       0x18 ../lpc2106_install/lib/libtarget.a(language_c_libc_stdio_vsnprintf.o)
                0x00012aa8                _ZTV19Cyg_VsnprintfStream
 .rodata._ZZ7vfscanfE7basefix
                0x00012ac0       0x22 ../lpc2106_install/lib/libtarget.a(language_c_libc_stdio_vfscanf.o)
 *fill*         0x00012ae2        0x2 00
 .rodata.str1.4
                0x00012ae4       0x22 ../lpc2106_install/lib/libtarget.a(language_c_libc_stdio_vfnprintf.o)
                                 0x4c (size before relaxing)
 *fill*         0x00012b06        0x2 00
 .rodata._ZZL5exp10jE6powtab
                0x00012b08       0x28 ../lpc2106_install/lib/libtarget.a(language_c_libc_stdlib_strtod.o)
 .rodata.Cyg_libc_str_null_mask_1
                0x00012b30        0x8 ../lpc2106_install/lib/libtarget.a(language_c_libc_string_strsuppt.o)
                0x00012b30                Cyg_libc_str_null_mask_1
 .rodata.Cyg_libc_str_null_mask_2
                0x00012b38        0x8 ../lpc2106_install/lib/libtarget.a(language_c_libc_string_strsuppt.o)
                0x00012b38                Cyg_libc_str_null_mask_2
 .rodata.cyg_libm_infinity
                0x00012b40        0x8 ../lpc2106_install/lib/libtarget.a(language_c_libm_infconst.o)
                0x00012b40                cyg_libm_infinity
 .rodata.str1.4
                0x00012b48      0x5e6 ../lpc2106_install/lib/libtarget.a(error_strerror.o)
                                0x5e8 (size before relaxing)
 .rodata._ZZL19construct_converterPN9Cyg_Clock9converterEyyyyE6primes
                0x0001312e       0x60 ../lpc2106_install/lib/libtarget.a(kernel_clock.o)
 .rodata.str1.4
                0x00000000      0x5e8 ../lpc2106_install/lib/libtarget.a(language_c_libc_startup_invokemain.o)
                                  0x4 (size before relaxing)
 *fill*         0x0001318e        0x2 00
 .rodata._ZZ20cyg_libc_invoke_mainE3C.4
                0x00013190        0x8 ../lpc2106_install/lib/libtarget.a(language_c_libc_startup_invokemain.o)
 .rodata.str1.4
                0x00000000       0x10 ../lpc2106_install/lib/libtarget.a(language_c_libc_stdio_stderr.o)
 .rodata.stderr
                0x00013198        0x4 ../lpc2106_install/lib/libtarget.a(language_c_libc_stdio_stderr.o)
                0x00013198                stderr
 .rodata.str1.4
                0x00000000       0x10 ../lpc2106_install/lib/libtarget.a(language_c_libc_stdio_stdin.o)
 .rodata.stdin  0x0001319c        0x4 ../lpc2106_install/lib/libtarget.a(language_c_libc_stdio_stdin.o)
                0x0001319c                stdin
 .rodata        0x000131a0      0x100 /home/psampaio/Develop/ecos/gnutools/arm-eabi/bin/../lib/gcc/arm-eabi/4.3.2/libgcc.a(_clz.o)
                0x000131a0                __clz_tab
 *(.gnu.linkonce.r.*)

.rodata1        0x000132a0        0x0
                0x000132a0                . = .
 *(.rodata1)

.fixup          0x000132a0        0x0
                0x000132a0                . = .
 *(.fixup)

.gcc_except_table
                0x000132a0        0x0
                0x000132a0                . = .

.fixed_vectors  0x40000400      0x140
                0x40000400                . = .
 *(.fixed_vectors)
 .fixed_vectors
                0x40000400      0x140 ../lpc2106_install/lib/vectors.o
                0x40000400                hal_vsr_table
                0x40000420                hal_dram_size
                0x40000424                hal_dram_type
                0x40000430                hal_virtual_vector_table

.data           0x40000540      0x34c load address 0x000132a0
                0x40000540                __ram_data_start = ABSOLUTE (.)
 *(.data*)
 .data          0x40000540      0x184 ../lpc2106_install/lib/vectors.o
                0x40000544                hal_interrupt_handlers
                0x400005c4                hal_interrupt_data
                0x40000644                hal_interrupt_objects
 .data          0x400006c4        0x0 /tmp/cckwxeNr.o
 .data          0x400006c4        0x0 ../lpc2106_install/lib/extras.o
 .data.cyg_io_serial_devio
                0x400006c4       0x1c ../lpc2106_install/lib/extras.o
                0x400006c4                cyg_io_serial_devio
 .data.cyg_io_serial_callbacks
                0x400006e0        0xc ../lpc2106_install/lib/extras.o
                0x400006e0                cyg_io_serial_callbacks
 .data.tty_devio
                0x400006ec       0x1c ../lpc2106_install/lib/extras.o
 .data.haldiag_channel0
                0x40000708       0x98 ../lpc2106_install/lib/extras.o
 .data.haldiag_funs
                0x400007a0       0x14 ../lpc2106_install/lib/extras.o
 .data          0x400007b4        0x0 ../lpc2106_install/lib/libtarget.a(hal_common_hal_if.o)
 .data.__selected_id.1834
                0x400007b4        0x4 ../lpc2106_install/lib/libtarget.a(hal_common_hal_if.o)
 .data.__selected_id.1791
                0x400007b8        0x4 ../lpc2106_install/lib/libtarget.a(hal_common_hal_if.o)
 .data          0x400007bc        0x0 ../lpc2106_install/lib/libtarget.a(hal_common_hal_misc.o)
 .data          0x400007bc        0x0 ../lpc2106_install/lib/libtarget.a(io_common_iosys.o)
 .data          0x400007bc        0x0 ../lpc2106_install/lib/libtarget.a(infra_startup.o)
 .data          0x400007bc        0x0 ../lpc2106_install/lib/libtarget.a(infra_prestart.o)
 .data          0x400007bc        0x0 ../lpc2106_install/lib/libtarget.a(infra_pkgstart.o)
 .data          0x400007bc        0x0 ../lpc2106_install/lib/libtarget.a(infra_userstart.o)
 .data          0x400007bc        0x0 ../lpc2106_install/lib/libtarget.a(infra_diag.o)
 .data._ZL5_putc
                0x400007bc        0x4 ../lpc2106_install/lib/libtarget.a(infra_diag.o)
 .data          0x400007c0        0x0 ../lpc2106_install/lib/libtarget.a(kernel_kapi.o)
 .data          0x400007c0        0x0 ../lpc2106_install/lib/libtarget.a(kernel_thread.o)
 .data._ZN10Cyg_Thread15thread_data_mapE
                0x400007c0        0x4 ../lpc2106_install/lib/libtarget.a(kernel_thread.o)
                0x400007c0                _ZN10Cyg_Thread15thread_data_mapE
 .data._ZL14next_unique_id
                0x400007c4        0x2 ../lpc2106_install/lib/libtarget.a(kernel_thread.o)
 .data          0x400007c6        0x0 ../lpc2106_install/lib/libtarget.a(kernel_except.o)
 .data          0x400007c6        0x0 ../lpc2106_install/lib/libtarget.a(kernel_intr.o)
 .data          0x400007c6        0x0 ../lpc2106_install/lib/libtarget.a(kernel_mlqueue.o)
 .data          0x400007c6        0x0 ../lpc2106_install/lib/libtarget.a(kernel_sched.o)
 *fill*         0x400007c6        0x2 00
 .data.cyg_scheduler_sched_lock
                0x400007c8        0x4 ../lpc2106_install/lib/libtarget.a(kernel_sched.o)
                0x400007c8                cyg_scheduler_sched_lock
 .data          0x400007cc        0x0 ../lpc2106_install/lib/libtarget.a(kernel_cnt_sem.o)
 .data          0x400007cc        0x0 ../lpc2106_install/lib/libtarget.a(kernel_flag.o)
 .data          0x400007cc        0x0 ../lpc2106_install/lib/libtarget.a(kernel_mbox.o)
 .data          0x400007cc        0x0 ../lpc2106_install/lib/libtarget.a(kernel_mutex.o)
 .data          0x400007cc        0x0 ../lpc2106_install/lib/libtarget.a(language_c_libc_startup_mainthread.o)
 .data          0x400007cc        0x0 ../lpc2106_install/lib/libtarget.a(language_c_libc_stdio_stdioinlines.o)
 .data          0x400007cc        0x0 ../lpc2106_install/lib/libtarget.a(language_c_libc_stdio_stdout.o)
 .data          0x400007cc        0x0 ../lpc2106_install/lib/libtarget.a(language_c_libc_stdio_stream.o)
 .data          0x400007cc        0x0 ../lpc2106_install/lib/libtarget.a(language_c_libc_stdio_streambuf.o)
 .data          0x400007cc        0x0 ../lpc2106_install/lib/libtarget.a(language_c_libc_stdio_vsnprintf.o)
 .data          0x400007cc        0x0 ../lpc2106_install/lib/libtarget.a(language_c_libc_stdio_vfscanf.o)
 .data          0x400007cc        0x0 ../lpc2106_install/lib/libtarget.a(language_c_libc_stdio_fprintf.o)
 .data          0x400007cc        0x0 ../lpc2106_install/lib/libtarget.a(language_c_libc_stdio_fputc.o)
 .data          0x400007cc        0x0 ../lpc2106_install/lib/libtarget.a(language_c_libc_stdio_fputs.o)
 .data          0x400007cc        0x0 ../lpc2106_install/lib/libtarget.a(language_c_libc_stdio_vfnprintf.o)
 .data._ZZ9vfnprintfE6zeroes
                0x400007cc       0x10 ../lpc2106_install/lib/libtarget.a(language_c_libc_stdio_vfnprintf.o)
 .data._ZZ9vfnprintfE6blanks
                0x400007dc       0x10 ../lpc2106_install/lib/libtarget.a(language_c_libc_stdio_vfnprintf.o)
 .data          0x400007ec        0x0 ../lpc2106_install/lib/libtarget.a(language_c_libc_stdlib_strtod.o)
 .data          0x400007ec        0x0 ../lpc2106_install/lib/libtarget.a(language_c_libc_stdlib_strtol.o)
 .data          0x400007ec        0x0 ../lpc2106_install/lib/libtarget.a(language_c_libc_stdlib_strtoul.o)
 .data          0x400007ec        0x0 ../lpc2106_install/lib/libtarget.a(language_c_libc_stdlib_strtoll.o)
 .data          0x400007ec        0x0 ../lpc2106_install/lib/libtarget.a(language_c_libc_stdlib_strtoull.o)
 .data          0x400007ec        0x0 ../lpc2106_install/lib/libtarget.a(language_c_libc_string_memchr.o)
 .data          0x400007ec        0x0 ../lpc2106_install/lib/libtarget.a(language_c_libc_string_strlen.o)
 .data          0x400007ec        0x0 ../lpc2106_install/lib/libtarget.a(language_c_libc_string_strsuppt.o)
 .data          0x400007ec        0x0 ../lpc2106_install/lib/libtarget.a(language_c_libm_infconst.o)
 .data          0x400007ec        0x0 ../lpc2106_install/lib/libtarget.a(language_c_libm_s_modf.o)
 .data          0x400007ec        0x0 ../lpc2106_install/lib/libtarget.a(error_strerror.o)
 .data          0x400007ec        0x0 ../lpc2106_install/lib/libtarget.a(error_errno.o)
 .data          0x400007ec        0x0 ../lpc2106_install/lib/libtarget.a(hal_arm_arch_hal_misc.o)
 .data          0x400007ec        0x0 ../lpc2106_install/lib/libtarget.a(hal_arm_arch_context.o)
 .data          0x400007ec        0x0 ../lpc2106_install/lib/libtarget.a(hal_arm_lpc2xxx_var_lpc2xxx_misc.o)
 .data          0x400007ec        0x0 ../lpc2106_install/lib/libtarget.a(hal_arm_lpc2xxx_p2106_p2106_misc.o)
 .data          0x400007ec        0x0 ../lpc2106_install/lib/libtarget.a(infra_memcpy.o)
 .data          0x400007ec        0x0 ../lpc2106_install/lib/libtarget.a(infra_delete.o)
 .data          0x400007ec        0x0 ../lpc2106_install/lib/libtarget.a(kernel_clock.o)
 .data.rtc_resolution
                0x400007ec        0x8 ../lpc2106_install/lib/libtarget.a(kernel_clock.o)
                0x400007ec                rtc_resolution
 .data          0x400007f4        0x0 ../lpc2106_install/lib/libtarget.a(services_memalloc_common_malloc.o)
 .data          0x400007f4        0x0 ../lpc2106_install/lib/libtarget.a(services_memalloc_common_heaps.o)
 .data.cygmem_memalloc_heaps
                0x400007f4        0x8 ../lpc2106_install/lib/libtarget.a(services_memalloc_common_heaps.o)
                0x400007f4                cygmem_memalloc_heaps
 .data          0x400007fc        0x0 ../lpc2106_install/lib/libtarget.a(language_c_libc_startup_invokemain.o)
 .data          0x400007fc        0x0 ../lpc2106_install/lib/libtarget.a(language_c_libc_stdio_fflush.o)
 .data          0x400007fc        0x0 ../lpc2106_install/lib/libtarget.a(language_c_libc_stdio_setvbuf.o)
 .data          0x400007fc        0x0 ../lpc2106_install/lib/libtarget.a(language_c_libc_stdio_stderr.o)
 .data          0x400007fc        0x0 ../lpc2106_install/lib/libtarget.a(language_c_libc_stdio_stdin.o)
 .data          0x400007fc        0x0 ../lpc2106_install/lib/libtarget.a(language_c_libc_stdio_stdiofiles.o)
 .data          0x400007fc        0x0 ../lpc2106_install/lib/libtarget.a(language_c_libc_stdio_stdiosupp.o)
 .data          0x400007fc        0x0 ../lpc2106_install/lib/libtarget.a(language_c_libc_stdio_ungetc.o)
 .data          0x400007fc        0x0 ../lpc2106_install/lib/libtarget.a(hal_arm_lpc2xxx_var_hal_diag.o)
 .data.lpc2xxx_ser_channels
                0x400007fc       0x20 ../lpc2106_install/lib/libtarget.a(hal_arm_lpc2xxx_var_hal_diag.o)
 .data          0x4000081c        0x0 ../lpc2106_install/lib/libtarget.a(infra_memset.o)
 .data          0x4000081c        0x0 ../lpc2106_install/lib/libtarget.a(services_memalloc_common_dlmalloc.o)
 .data          0x4000081c        0x0 ../lpc2106_install/lib/libtarget.a(language_c_libc_startup_exit.o)
 .data          0x4000081c        0x0 ../lpc2106_install/lib/libtarget.a(language_c_libc_string_memmove.o)
 .data          0x4000081c        0x0 ../lpc2106_install/lib/libtarget.a(language_c_libc_startup__exit.o)
 .data          0x4000081c        0x0 ../lpc2106_install/lib/libtarget.a(language_c_libc_startup_atexit.o)
 .data          0x4000081c        0x0 /home/psampaio/Develop/ecos/gnutools/arm-eabi/bin/../lib/gcc/arm-eabi/4.3.2/libgcc.a(_udivsi3.o)
 .data          0x4000081c        0x0 /home/psampaio/Develop/ecos/gnutools/arm-eabi/bin/../lib/gcc/arm-eabi/4.3.2/libgcc.a(_divsi3.o)
 .data          0x4000081c        0x0 /home/psampaio/Develop/ecos/gnutools/arm-eabi/bin/../lib/gcc/arm-eabi/4.3.2/libgcc.a(_dvmd_tls.o)
 .data          0x4000081c        0x0 /home/psampaio/Develop/ecos/gnutools/arm-eabi/bin/../lib/gcc/arm-eabi/4.3.2/libgcc.a(_addsubdf3.o)
 .data          0x4000081c        0x0 /home/psampaio/Develop/ecos/gnutools/arm-eabi/bin/../lib/gcc/arm-eabi/4.3.2/libgcc.a(_muldivdf3.o)
 .data          0x4000081c        0x0 /home/psampaio/Develop/ecos/gnutools/arm-eabi/bin/../lib/gcc/arm-eabi/4.3.2/libgcc.a(_cmpdf2.o)
 .data          0x4000081c        0x0 /home/psampaio/Develop/ecos/gnutools/arm-eabi/bin/../lib/gcc/arm-eabi/4.3.2/libgcc.a(_unorddf2.o)
 .data          0x4000081c        0x0 /home/psampaio/Develop/ecos/gnutools/arm-eabi/bin/../lib/gcc/arm-eabi/4.3.2/libgcc.a(_fixdfsi.o)
 .data          0x4000081c        0x0 /home/psampaio/Develop/ecos/gnutools/arm-eabi/bin/../lib/gcc/arm-eabi/4.3.2/libgcc.a(_truncdfsf2.o)
 .data          0x4000081c        0x0 /home/psampaio/Develop/ecos/gnutools/arm-eabi/bin/../lib/gcc/arm-eabi/4.3.2/libgcc.a(_aeabi_uldivmod.o)
 .data          0x4000081c        0x0 /home/psampaio/Develop/ecos/gnutools/arm-eabi/bin/../lib/gcc/arm-eabi/4.3.2/libgcc.a(bpabi.o)
 .data          0x4000081c        0x0 /home/psampaio/Develop/ecos/gnutools/arm-eabi/bin/../lib/gcc/arm-eabi/4.3.2/libgcc.a(_divdi3.o)
 .data          0x4000081c        0x0 /home/psampaio/Develop/ecos/gnutools/arm-eabi/bin/../lib/gcc/arm-eabi/4.3.2/libgcc.a(_udivdi3.o)
 .data          0x4000081c        0x0 /home/psampaio/Develop/ecos/gnutools/arm-eabi/bin/../lib/gcc/arm-eabi/4.3.2/libgcc.a(_clz.o)
 *(.data1)
 *(.gnu.linkonce.d.*)
                0x4000081c                . = ALIGN (0x4)
 *(SORT(.ecos.table.*))
 .ecos.table.devtab.begin
                0x4000081c        0x0 ../lpc2106_install/lib/extras.o
                0x4000081c                __DEVTAB__
 .ecos.table.devtab.data
                0x4000081c       0x38 ../lpc2106_install/lib/extras.o
                0x40000838                haldiag_io0
                0x4000081c                tty_io_diag
 .ecos.table.devtab.finish
                0x40000854        0x0 ../lpc2106_install/lib/extras.o
                0x40000854                __DEVTAB_END__
                0x40000854                . = ALIGN (0x4)
                0x40000854                __init_array_start__ = ABSOLUTE (.)
 *(SORT(.init_array.*))
 .init_array.10100
                0x40000854        0x4 ../lpc2106_install/lib/libtarget.a(infra_diag.o)
 .init_array.11000
                0x40000858        0x4 ../lpc2106_install/lib/libtarget.a(kernel_sched.o)
 .init_array.11100
                0x4000085c        0x4 ../lpc2106_install/lib/libtarget.a(kernel_thread.o)
 .init_array.12000
                0x40000860        0x4 ../lpc2106_install/lib/libtarget.a(kernel_except.o)
 .init_array.12000
                0x40000864        0x4 ../lpc2106_install/lib/libtarget.a(kernel_intr.o)
 .init_array.14000
                0x40000868        0x4 ../lpc2106_install/lib/libtarget.a(kernel_clock.o)
 .init_array.19900
                0x4000086c        0x4 ../lpc2106_install/lib/libtarget.a(services_memalloc_common_heaps.o)
 .init_array.49000
                0x40000870        0x4 ../lpc2106_install/lib/extras.o
 .init_array.56000
                0x40000874        0x4 ../lpc2106_install/lib/libtarget.a(language_c_libc_startup_mainthread.o)
 .init_array.56000
                0x40000878        0x4 ../lpc2106_install/lib/libtarget.a(language_c_libc_stdio_stdin.o)
 .init_array.56000
                0x4000087c        0x4 ../lpc2106_install/lib/libtarget.a(language_c_libc_stdio_stdiofiles.o)
 .init_array.56001
                0x40000880        0x4 ../lpc2106_install/lib/libtarget.a(language_c_libc_stdio_stdout.o)
 .init_array.56002
                0x40000884        0x4 ../lpc2106_install/lib/libtarget.a(language_c_libc_stdio_stderr.o)
 .init_array.56100
                0x40000888        0x4 ../lpc2106_install/lib/extras.o
 *(SORT(.init_array))
                0x4000088c                __init_array_end__ = ABSOLUTE (.)
 *(.dynamic)
 *(.sdata*)
 *(.gnu.linkonce.s.*)
                0x4000088c                . = ALIGN (0x4)
 *(.2ram.*)
                0x000132a0                __rom_data_start = LOADADDR (.data)
                0x4000088c                __ram_data_end = .
                0x4000088c                PROVIDE (__ram_data_end, .)
                0x4000088c                _edata = .
                0x4000088c                PROVIDE (edata, .)
                0x000135ec                PROVIDE (__rom_data_end, (LOADADDR (.data) + SIZEOF (.data)))

.bss            0x4000088c     0x43c8 load address 0x000135ec
                0x4000088c                __bss_start = ABSOLUTE (.)
 *(.scommon)
 *(.dynsbss)
 *(.sbss*)
 *(.gnu.linkonce.sb.*)
 *(.dynbss)
 *(.bss*)
 *fill*         0x4000088c        0x4 00
 .bss           0x40000890     0x1310 ../lpc2106_install/lib/vectors.o
                0x40000990                cyg_interrupt_stack_base
                0x40001990                cyg_interrupt_stack
 .bss           0x40001ba0        0x0 /tmp/cckwxeNr.o
 .bss           0x40001ba0        0x0 ../lpc2106_install/lib/extras.o
 .bss.tty_private_info_diag
                0x40001ba0        0xc ../lpc2106_install/lib/extras.o
 .bss._no_data  0x40001bac        0x4 ../lpc2106_install/lib/extras.o
 .bss._ZZ15cyg_iso_c_startE11initialized
                0x40001bb0        0x4 ../lpc2106_install/lib/extras.o
 .bss           0x40001bb4        0x0 ../lpc2106_install/lib/libtarget.a(hal_common_hal_if.o)
 .bss.called.1998
                0x40001bb4        0x1 ../lpc2106_install/lib/libtarget.a(hal_common_hal_if.o)
 *fill*         0x40001bb5        0x3 00
 .bss.__mangler_pos
                0x40001bb8        0x4 ../lpc2106_install/lib/libtarget.a(hal_common_hal_if.o)
 .bss.comm_channels
                0x40001bbc       0x40 ../lpc2106_install/lib/libtarget.a(hal_common_hal_if.o)
 .bss.__mangler_line
                0x40001bfc       0x64 ../lpc2106_install/lib/libtarget.a(hal_common_hal_if.o)
 .bss           0x40001c60        0x0 ../lpc2106_install/lib/libtarget.a(hal_common_hal_misc.o)
 .bss           0x40001c60        0x0 ../lpc2106_install/lib/libtarget.a(io_common_iosys.o)
 .bss._init.2138
                0x40001c60        0x4 ../lpc2106_install/lib/libtarget.a(io_common_iosys.o)
 .bss           0x40001c64        0x0 ../lpc2106_install/lib/libtarget.a(infra_startup.o)
 .bss           0x40001c64        0x0 ../lpc2106_install/lib/libtarget.a(infra_prestart.o)
 .bss           0x40001c64        0x0 ../lpc2106_install/lib/libtarget.a(infra_pkgstart.o)
 .bss           0x40001c64        0x0 ../lpc2106_install/lib/libtarget.a(infra_userstart.o)
 .bss           0x40001c64        0x0 ../lpc2106_install/lib/libtarget.a(infra_diag.o)
 .bss           0x40001c64        0x0 ../lpc2106_install/lib/libtarget.a(kernel_kapi.o)
 .bss           0x40001c64        0x0 ../lpc2106_install/lib/libtarget.a(kernel_thread.o)
 .bss._ZN10Cyg_Thread11thread_listE
                0x40001c64        0x4 ../lpc2106_install/lib/libtarget.a(kernel_thread.o)
                0x40001c64                _ZN10Cyg_Thread11thread_listE
 .bss.idle_thread_loops
                0x40001c68        0x4 ../lpc2106_install/lib/libtarget.a(kernel_thread.o)
                0x40001c68                idle_thread_loops
 *fill*         0x40001c6c        0x4 00
 .bss.idle_thread
                0x40001c70       0xa8 ../lpc2106_install/lib/libtarget.a(kernel_thread.o)
                0x40001c70                idle_thread
 .bss._ZL17idle_thread_stack
                0x40001d18      0x800 ../lpc2106_install/lib/libtarget.a(kernel_thread.o)
 .bss           0x40002518        0x0 ../lpc2106_install/lib/libtarget.a(kernel_except.o)
 .bss._ZN10Cyg_Thread17exception_controlE
                0x40002518        0x8 ../lpc2106_install/lib/libtarget.a(kernel_except.o)
                0x40002518                _ZN10Cyg_Thread17exception_controlE
 .bss           0x40002520        0x0 ../lpc2106_install/lib/libtarget.a(kernel_intr.o)
 .bss._ZN13Cyg_Interrupt15disable_counterE
                0x40002520        0x4 ../lpc2106_install/lib/libtarget.a(kernel_intr.o)
                0x40002520                _ZN13Cyg_Interrupt15disable_counterE
 .bss._ZN13Cyg_Interrupt26interrupt_disable_spinlockE
                0x40002524        0x4 ../lpc2106_install/lib/libtarget.a(kernel_intr.o)
                0x40002524                _ZN13Cyg_Interrupt26interrupt_disable_spinlockE
 .bss._ZN13Cyg_Interrupt23interrupt_disable_stateE
                0x40002528        0x4 ../lpc2106_install/lib/libtarget.a(kernel_intr.o)
                0x40002528                _ZN13Cyg_Interrupt23interrupt_disable_stateE
 .bss._ZN13Cyg_Interrupt8dsr_listE
                0x4000252c        0x4 ../lpc2106_install/lib/libtarget.a(kernel_intr.o)
                0x4000252c                _ZN13Cyg_Interrupt8dsr_listE
 .bss._ZN13Cyg_Interrupt13dsr_list_tailE
                0x40002530        0x4 ../lpc2106_install/lib/libtarget.a(kernel_intr.o)
                0x40002530                _ZN13Cyg_Interrupt13dsr_list_tailE
 .bss           0x40002534        0x0 ../lpc2106_install/lib/libtarget.a(kernel_mlqueue.o)
 .bss._ZN28Cyg_Scheduler_Implementation15timeslice_countE
                0x40002534        0x4 ../lpc2106_install/lib/libtarget.a(kernel_mlqueue.o)
                0x40002534                _ZN28Cyg_Scheduler_Implementation15timeslice_countE
 .bss           0x40002538        0x0 ../lpc2106_install/lib/libtarget.a(kernel_sched.o)
 .bss._ZN18Cyg_Scheduler_Base14current_threadE
                0x40002538        0x4 ../lpc2106_install/lib/libtarget.a(kernel_sched.o)
                0x40002538                _ZN18Cyg_Scheduler_Base14current_threadE
 .bss._ZN18Cyg_Scheduler_Base15need_rescheduleE
                0x4000253c        0x4 ../lpc2106_install/lib/libtarget.a(kernel_sched.o)
                0x4000253c                _ZN18Cyg_Scheduler_Base15need_rescheduleE
 .bss._ZN13Cyg_Scheduler9schedulerE
                0x40002540       0x84 ../lpc2106_install/lib/libtarget.a(kernel_sched.o)
                0x40002540                _ZN13Cyg_Scheduler9schedulerE
 .bss._ZN18Cyg_Scheduler_Base15thread_switchesE
                0x400025c4        0x4 ../lpc2106_install/lib/libtarget.a(kernel_sched.o)
                0x400025c4                _ZN18Cyg_Scheduler_Base15thread_switchesE
 .bss           0x400025c8        0x0 ../lpc2106_install/lib/libtarget.a(kernel_cnt_sem.o)
 .bss           0x400025c8        0x0 ../lpc2106_install/lib/libtarget.a(kernel_flag.o)
 .bss           0x400025c8        0x0 ../lpc2106_install/lib/libtarget.a(kernel_mbox.o)
 .bss           0x400025c8        0x0 ../lpc2106_install/lib/libtarget.a(kernel_mutex.o)
 .bss           0x400025c8        0x0 ../lpc2106_install/lib/libtarget.a(language_c_libc_startup_mainthread.o)
 .bss.cyg_libc_main_thread
                0x400025c8       0xa8 ../lpc2106_install/lib/libtarget.a(language_c_libc_startup_mainthread.o)
                0x400025c8                cyg_libc_main_thread
 .bss._ZL19cyg_libc_main_stack
                0x40002670     0x2000 ../lpc2106_install/lib/libtarget.a(language_c_libc_startup_mainthread.o)
 .bss           0x40004670        0x0 ../lpc2106_install/lib/libtarget.a(language_c_libc_stdio_stdioinlines.o)
 .bss           0x40004670        0x0 ../lpc2106_install/lib/libtarget.a(language_c_libc_stdio_stdout.o)
 .bss.cyg_libc_stdio_stdout
                0x40004670       0x44 ../lpc2106_install/lib/libtarget.a(language_c_libc_stdio_stdout.o)
                0x40004670                cyg_libc_stdio_stdout
 .bss           0x400046b4        0x0 ../lpc2106_install/lib/libtarget.a(language_c_libc_stdio_stream.o)
 .bss           0x400046b4        0x0 ../lpc2106_install/lib/libtarget.a(language_c_libc_stdio_streambuf.o)
 .bss           0x400046b4        0x0 ../lpc2106_install/lib/libtarget.a(language_c_libc_stdio_vsnprintf.o)
 .bss           0x400046b4        0x0 ../lpc2106_install/lib/libtarget.a(language_c_libc_stdio_vfscanf.o)
 .bss           0x400046b4        0x0 ../lpc2106_install/lib/libtarget.a(language_c_libc_stdio_fprintf.o)
 .bss           0x400046b4        0x0 ../lpc2106_install/lib/libtarget.a(language_c_libc_stdio_fputc.o)
 .bss           0x400046b4        0x0 ../lpc2106_install/lib/libtarget.a(language_c_libc_stdio_fputs.o)
 .bss           0x400046b4        0x0 ../lpc2106_install/lib/libtarget.a(language_c_libc_stdio_vfnprintf.o)
 .bss           0x400046b4        0x0 ../lpc2106_install/lib/libtarget.a(language_c_libc_stdlib_strtod.o)
 .bss           0x400046b4        0x0 ../lpc2106_install/lib/libtarget.a(language_c_libc_stdlib_strtol.o)
 .bss           0x400046b4        0x0 ../lpc2106_install/lib/libtarget.a(language_c_libc_stdlib_strtoul.o)
 .bss           0x400046b4        0x0 ../lpc2106_install/lib/libtarget.a(language_c_libc_stdlib_strtoll.o)
 .bss           0x400046b4        0x0 ../lpc2106_install/lib/libtarget.a(language_c_libc_stdlib_strtoull.o)
 .bss           0x400046b4        0x0 ../lpc2106_install/lib/libtarget.a(language_c_libc_string_memchr.o)
 .bss           0x400046b4        0x0 ../lpc2106_install/lib/libtarget.a(language_c_libc_string_strlen.o)
 .bss           0x400046b4        0x0 ../lpc2106_install/lib/libtarget.a(language_c_libc_string_strsuppt.o)
 .bss           0x400046b4        0x0 ../lpc2106_install/lib/libtarget.a(language_c_libm_infconst.o)
 .bss           0x400046b4        0x0 ../lpc2106_install/lib/libtarget.a(language_c_libm_s_modf.o)
 .bss           0x400046b4        0x0 ../lpc2106_install/lib/libtarget.a(error_strerror.o)
 .bss           0x400046b4        0x0 ../lpc2106_install/lib/libtarget.a(error_errno.o)
 .bss           0x400046b4        0x0 ../lpc2106_install/lib/libtarget.a(hal_arm_arch_hal_misc.o)
 .bss           0x400046b4        0x0 ../lpc2106_install/lib/libtarget.a(hal_arm_arch_context.o)
 .bss           0x400046b4        0x0 ../lpc2106_install/lib/libtarget.a(hal_arm_lpc2xxx_var_lpc2xxx_misc.o)
 .bss._period   0x400046b4        0x4 ../lpc2106_install/lib/libtarget.a(hal_arm_lpc2xxx_var_lpc2xxx_misc.o)
 .bss           0x400046b8        0x0 ../lpc2106_install/lib/libtarget.a(hal_arm_lpc2xxx_p2106_p2106_misc.o)
 .bss.initialized.1284
                0x400046b8        0x4 ../lpc2106_install/lib/libtarget.a(hal_arm_lpc2xxx_p2106_p2106_misc.o)
 .bss           0x400046bc        0x0 ../lpc2106_install/lib/libtarget.a(infra_memcpy.o)
 .bss           0x400046bc        0x0 ../lpc2106_install/lib/libtarget.a(infra_delete.o)
 .bss           0x400046bc        0x0 ../lpc2106_install/lib/libtarget.a(kernel_clock.o)
 .bss._ZN9Cyg_Clock15real_time_clockE
                0x400046bc        0x4 ../lpc2106_install/lib/libtarget.a(kernel_clock.o)
                0x400046bc                _ZN9Cyg_Clock15real_time_clockE
 .bss._ZN17Cyg_RealTimeClock3rtcE
                0x400046c0       0x38 ../lpc2106_install/lib/libtarget.a(kernel_clock.o)
                0x400046c0                _ZN17Cyg_RealTimeClock3rtcE
 .bss           0x400046f8        0x0 ../lpc2106_install/lib/libtarget.a(services_memalloc_common_malloc.o)
 .bss           0x400046f8        0x0 ../lpc2106_install/lib/libtarget.a(services_memalloc_common_heaps.o)
 .bss.cygmem_pool_heap1
                0x400046f8      0x414 ../lpc2106_install/lib/libtarget.a(services_memalloc_common_heaps.o)
                0x400046f8                cygmem_pool_heap1
 .bss           0x40004b0c        0x0 ../lpc2106_install/lib/libtarget.a(language_c_libc_startup_invokemain.o)
 .bss           0x40004b0c        0x0 ../lpc2106_install/lib/libtarget.a(language_c_libc_stdio_fflush.o)
 .bss           0x40004b0c        0x0 ../lpc2106_install/lib/libtarget.a(language_c_libc_stdio_setvbuf.o)
 .bss           0x40004b0c        0x0 ../lpc2106_install/lib/libtarget.a(language_c_libc_stdio_stderr.o)
 .bss.cyg_libc_stdio_stderr
                0x40004b0c       0x44 ../lpc2106_install/lib/libtarget.a(language_c_libc_stdio_stderr.o)
                0x40004b0c                cyg_libc_stdio_stderr
 .bss           0x40004b50        0x0 ../lpc2106_install/lib/libtarget.a(language_c_libc_stdio_stdin.o)
 .bss.cyg_libc_stdio_stdin
                0x40004b50       0x44 ../lpc2106_install/lib/libtarget.a(language_c_libc_stdio_stdin.o)
                0x40004b50                cyg_libc_stdio_stdin
 .bss           0x40004b94        0x0 ../lpc2106_install/lib/libtarget.a(language_c_libc_stdio_stdiofiles.o)
 .bss._ZN20Cyg_libc_stdio_files5filesE
                0x40004b94       0x20 ../lpc2106_install/lib/libtarget.a(language_c_libc_stdio_stdiofiles.o)
                0x40004b94                _ZN20Cyg_libc_stdio_files5filesE
 .bss._ZN20Cyg_libc_stdio_files10files_lockE
                0x40004bb4       0x14 ../lpc2106_install/lib/libtarget.a(language_c_libc_stdio_stdiofiles.o)
                0x40004bb4                _ZN20Cyg_libc_stdio_files10files_lockE
 .bss           0x40004bc8        0x0 ../lpc2106_install/lib/libtarget.a(language_c_libc_stdio_stdiosupp.o)
 .bss           0x40004bc8        0x0 ../lpc2106_install/lib/libtarget.a(language_c_libc_stdio_ungetc.o)
 .bss           0x40004bc8        0x0 ../lpc2106_install/lib/libtarget.a(hal_arm_lpc2xxx_var_hal_diag.o)
 .bss.irq_state.2421
                0x40004bc8        0x4 ../lpc2106_install/lib/libtarget.a(hal_arm_lpc2xxx_var_hal_diag.o)
 .bss           0x40004bcc        0x0 ../lpc2106_install/lib/libtarget.a(infra_memset.o)
 .bss           0x40004bcc        0x0 ../lpc2106_install/lib/libtarget.a(services_memalloc_common_dlmalloc.o)
 .bss           0x40004bcc        0x0 ../lpc2106_install/lib/libtarget.a(language_c_libc_startup_exit.o)
 .bss           0x40004bcc        0x0 ../lpc2106_install/lib/libtarget.a(language_c_libc_string_memmove.o)
 .bss           0x40004bcc        0x0 ../lpc2106_install/lib/libtarget.a(language_c_libc_startup__exit.o)
 .bss           0x40004bcc        0x0 ../lpc2106_install/lib/libtarget.a(language_c_libc_startup_atexit.o)
 .bss._ZL30cyg_libc_atexit_handlers_count
                0x40004bcc        0x4 ../lpc2106_install/lib/libtarget.a(language_c_libc_startup_atexit.o)
 .bss._ZL24cyg_libc_atexit_handlers
                0x40004bd0       0x80 ../lpc2106_install/lib/libtarget.a(language_c_libc_startup_atexit.o)
 .bss           0x40004c50        0x0 /home/psampaio/Develop/ecos/gnutools/arm-eabi/bin/../lib/gcc/arm-eabi/4.3.2/libgcc.a(_udivsi3.o)
 .bss           0x40004c50        0x0 /home/psampaio/Develop/ecos/gnutools/arm-eabi/bin/../lib/gcc/arm-eabi/4.3.2/libgcc.a(_divsi3.o)
 .bss           0x40004c50        0x0 /home/psampaio/Develop/ecos/gnutools/arm-eabi/bin/../lib/gcc/arm-eabi/4.3.2/libgcc.a(_dvmd_tls.o)
 .bss           0x40004c50        0x0 /home/psampaio/Develop/ecos/gnutools/arm-eabi/bin/../lib/gcc/arm-eabi/4.3.2/libgcc.a(_addsubdf3.o)
 .bss           0x40004c50        0x0 /home/psampaio/Develop/ecos/gnutools/arm-eabi/bin/../lib/gcc/arm-eabi/4.3.2/libgcc.a(_muldivdf3.o)
 .bss           0x40004c50        0x0 /home/psampaio/Develop/ecos/gnutools/arm-eabi/bin/../lib/gcc/arm-eabi/4.3.2/libgcc.a(_cmpdf2.o)
 .bss           0x40004c50        0x0 /home/psampaio/Develop/ecos/gnutools/arm-eabi/bin/../lib/gcc/arm-eabi/4.3.2/libgcc.a(_unorddf2.o)
 .bss           0x40004c50        0x0 /home/psampaio/Develop/ecos/gnutools/arm-eabi/bin/../lib/gcc/arm-eabi/4.3.2/libgcc.a(_fixdfsi.o)
 .bss           0x40004c50        0x0 /home/psampaio/Develop/ecos/gnutools/arm-eabi/bin/../lib/gcc/arm-eabi/4.3.2/libgcc.a(_truncdfsf2.o)
 .bss           0x40004c50        0x0 /home/psampaio/Develop/ecos/gnutools/arm-eabi/bin/../lib/gcc/arm-eabi/4.3.2/libgcc.a(_aeabi_uldivmod.o)
 .bss           0x40004c50        0x0 /home/psampaio/Develop/ecos/gnutools/arm-eabi/bin/../lib/gcc/arm-eabi/4.3.2/libgcc.a(bpabi.o)
 .bss           0x40004c50        0x0 /home/psampaio/Develop/ecos/gnutools/arm-eabi/bin/../lib/gcc/arm-eabi/4.3.2/libgcc.a(_divdi3.o)
 .bss           0x40004c50        0x0 /home/psampaio/Develop/ecos/gnutools/arm-eabi/bin/../lib/gcc/arm-eabi/4.3.2/libgcc.a(_udivdi3.o)
 .bss           0x40004c50        0x0 /home/psampaio/Develop/ecos/gnutools/arm-eabi/bin/../lib/gcc/arm-eabi/4.3.2/libgcc.a(_clz.o)
 *(.gnu.linkonce.b.*)
 *(COMMON)
 COMMON         0x40004c50        0x4 ../lpc2106_install/lib/libtarget.a(hal_common_hal_misc.o)
                0x40004c50                _cyg_hal_compiler_dummy
                0x40004c54                __bss_end = ABSOLUTE (.)
                0x40004c58                __heap1 = ALIGN (0x8)
                0x40004c54                . = ALIGN (0x4)
                0x40004c54                _end = .
                0x40004c54                PROVIDE (end, .)
OUTPUT(main.elf elf32-littlearm)

.ARM.attributes
                0x00000000       0x2c
 .ARM.attributes
                0x00000000       0x1e ../lpc2106_install/lib/vectors.o
 .ARM.attributes
                0x0000001e       0x2e /tmp/cckwxeNr.o
 .ARM.attributes
                0x0000004c       0x2e ../lpc2106_install/lib/extras.o
 .ARM.attributes
                0x0000007a       0x2e ../lpc2106_install/lib/libtarget.a(hal_common_hal_if.o)
 .ARM.attributes
                0x000000a8       0x2e ../lpc2106_install/lib/libtarget.a(hal_common_hal_misc.o)
 .ARM.attributes
                0x000000d6       0x2e ../lpc2106_install/lib/libtarget.a(io_common_iosys.o)
 .ARM.attributes
                0x00000104       0x2e ../lpc2106_install/lib/libtarget.a(infra_startup.o)
 .ARM.attributes
                0x00000132       0x2e ../lpc2106_install/lib/libtarget.a(infra_prestart.o)
 .ARM.attributes
                0x00000160       0x2e ../lpc2106_install/lib/libtarget.a(infra_pkgstart.o)
 .ARM.attributes
                0x0000018e       0x2e ../lpc2106_install/lib/libtarget.a(infra_userstart.o)
 .ARM.attributes
                0x000001bc       0x2e ../lpc2106_install/lib/libtarget.a(infra_diag.o)
 .ARM.attributes
                0x000001ea       0x2e ../lpc2106_install/lib/libtarget.a(kernel_kapi.o)
 .ARM.attributes
                0x00000218       0x2e ../lpc2106_install/lib/libtarget.a(kernel_thread.o)
 .ARM.attributes
                0x00000246       0x2e ../lpc2106_install/lib/libtarget.a(kernel_except.o)
 .ARM.attributes
                0x00000274       0x2e ../lpc2106_install/lib/libtarget.a(kernel_intr.o)
 .ARM.attributes
                0x000002a2       0x2e ../lpc2106_install/lib/libtarget.a(kernel_mlqueue.o)
 .ARM.attributes
                0x000002d0       0x2e ../lpc2106_install/lib/libtarget.a(kernel_sched.o)
 .ARM.attributes
                0x000002fe       0x2e ../lpc2106_install/lib/libtarget.a(kernel_cnt_sem.o)
 .ARM.attributes
                0x0000032c       0x2e ../lpc2106_install/lib/libtarget.a(kernel_flag.o)
 .ARM.attributes
                0x0000035a       0x2e ../lpc2106_install/lib/libtarget.a(kernel_mbox.o)
 .ARM.attributes
                0x00000388       0x2e ../lpc2106_install/lib/libtarget.a(kernel_mutex.o)
 .ARM.attributes
                0x000003b6       0x2e ../lpc2106_install/lib/libtarget.a(language_c_libc_startup_mainthread.o)
 .ARM.attributes
                0x000003e4       0x2e ../lpc2106_install/lib/libtarget.a(language_c_libc_stdio_stdioinlines.o)
 .ARM.attributes
                0x00000412       0x2e ../lpc2106_install/lib/libtarget.a(language_c_libc_stdio_stdout.o)
 .ARM.attributes
                0x00000440       0x2e ../lpc2106_install/lib/libtarget.a(language_c_libc_stdio_stream.o)
 .ARM.attributes
                0x0000046e       0x2e ../lpc2106_install/lib/libtarget.a(language_c_libc_stdio_streambuf.o)
 .ARM.attributes
                0x0000049c       0x2e ../lpc2106_install/lib/libtarget.a(language_c_libc_stdio_vsnprintf.o)
 .ARM.attributes
                0x000004ca       0x2e ../lpc2106_install/lib/libtarget.a(language_c_libc_stdio_vfscanf.o)
 .ARM.attributes
                0x000004f8       0x2e ../lpc2106_install/lib/libtarget.a(language_c_libc_stdio_fprintf.o)
 .ARM.attributes
                0x00000526       0x2e ../lpc2106_install/lib/libtarget.a(language_c_libc_stdio_fputc.o)
 .ARM.attributes
                0x00000554       0x2e ../lpc2106_install/lib/libtarget.a(language_c_libc_stdio_fputs.o)
 .ARM.attributes
                0x00000582       0x2e ../lpc2106_install/lib/libtarget.a(language_c_libc_stdio_vfnprintf.o)
 .ARM.attributes
                0x000005b0       0x2e ../lpc2106_install/lib/libtarget.a(language_c_libc_stdlib_strtod.o)
 .ARM.attributes
                0x000005de       0x2e ../lpc2106_install/lib/libtarget.a(language_c_libc_stdlib_strtol.o)
 .ARM.attributes
                0x0000060c       0x2e ../lpc2106_install/lib/libtarget.a(language_c_libc_stdlib_strtoul.o)
 .ARM.attributes
                0x0000063a       0x2e ../lpc2106_install/lib/libtarget.a(language_c_libc_stdlib_strtoll.o)
 .ARM.attributes
                0x00000668       0x2e ../lpc2106_install/lib/libtarget.a(language_c_libc_stdlib_strtoull.o)
 .ARM.attributes
                0x00000696       0x2e ../lpc2106_install/lib/libtarget.a(language_c_libc_string_memchr.o)
 .ARM.attributes
                0x000006c4       0x2e ../lpc2106_install/lib/libtarget.a(language_c_libc_string_strlen.o)
 .ARM.attributes
                0x000006f2       0x2c ../lpc2106_install/lib/libtarget.a(language_c_libc_string_strsuppt.o)
 .ARM.attributes
                0x0000071e       0x2c ../lpc2106_install/lib/libtarget.a(language_c_libm_infconst.o)
 .ARM.attributes
                0x0000074a       0x2e ../lpc2106_install/lib/libtarget.a(language_c_libm_s_modf.o)
 .ARM.attributes
                0x00000778       0x2e ../lpc2106_install/lib/libtarget.a(error_strerror.o)
 .ARM.attributes
                0x000007a6       0x2e ../lpc2106_install/lib/libtarget.a(error_errno.o)
 .ARM.attributes
                0x000007d4       0x2e ../lpc2106_install/lib/libtarget.a(hal_arm_arch_hal_misc.o)
 .ARM.attributes
                0x00000802       0x1e ../lpc2106_install/lib/libtarget.a(hal_arm_arch_context.o)
 .ARM.attributes
                0x00000820       0x2e ../lpc2106_install/lib/libtarget.a(hal_arm_lpc2xxx_var_lpc2xxx_misc.o)
 .ARM.attributes
                0x0000084e       0x2e ../lpc2106_install/lib/libtarget.a(hal_arm_lpc2xxx_p2106_p2106_misc.o)
 .ARM.attributes
                0x0000087c       0x2e ../lpc2106_install/lib/libtarget.a(infra_memcpy.o)
 .ARM.attributes
                0x000008aa       0x2e ../lpc2106_install/lib/libtarget.a(infra_delete.o)
 .ARM.attributes
                0x000008d8       0x2e ../lpc2106_install/lib/libtarget.a(kernel_clock.o)
 .ARM.attributes
                0x00000906       0x2e ../lpc2106_install/lib/libtarget.a(services_memalloc_common_malloc.o)
 .ARM.attributes
                0x00000934       0x2e ../lpc2106_install/lib/libtarget.a(services_memalloc_common_heaps.o)
 .ARM.attributes
                0x00000962       0x2e ../lpc2106_install/lib/libtarget.a(language_c_libc_startup_invokemain.o)
 .ARM.attributes
                0x00000990       0x2e ../lpc2106_install/lib/libtarget.a(language_c_libc_stdio_fflush.o)
 .ARM.attributes
                0x000009be       0x2e ../lpc2106_install/lib/libtarget.a(language_c_libc_stdio_setvbuf.o)
 .ARM.attributes
                0x000009ec       0x2e ../lpc2106_install/lib/libtarget.a(language_c_libc_stdio_stderr.o)
 .ARM.attributes
                0x00000a1a       0x2e ../lpc2106_install/lib/libtarget.a(language_c_libc_stdio_stdin.o)
 .ARM.attributes
                0x00000a48       0x2e ../lpc2106_install/lib/libtarget.a(language_c_libc_stdio_stdiofiles.o)
 .ARM.attributes
                0x00000a76       0x2e ../lpc2106_install/lib/libtarget.a(language_c_libc_stdio_stdiosupp.o)
 .ARM.attributes
                0x00000aa4       0x2e ../lpc2106_install/lib/libtarget.a(language_c_libc_stdio_ungetc.o)
 .ARM.attributes
                0x00000ad2       0x2e ../lpc2106_install/lib/libtarget.a(hal_arm_lpc2xxx_var_hal_diag.o)
 .ARM.attributes
                0x00000b00       0x2e ../lpc2106_install/lib/libtarget.a(infra_memset.o)
 .ARM.attributes
                0x00000b2e       0x2e ../lpc2106_install/lib/libtarget.a(services_memalloc_common_dlmalloc.o)
 .ARM.attributes
                0x00000b5c       0x2e ../lpc2106_install/lib/libtarget.a(language_c_libc_startup_exit.o)
 .ARM.attributes
                0x00000b8a       0x2e ../lpc2106_install/lib/libtarget.a(language_c_libc_string_memmove.o)
 .ARM.attributes
                0x00000bb8       0x2e ../lpc2106_install/lib/libtarget.a(language_c_libc_startup__exit.o)
 .ARM.attributes
                0x00000be6       0x2e ../lpc2106_install/lib/libtarget.a(language_c_libc_startup_atexit.o)
 .ARM.attributes
                0x00000c14       0x1e /home/psampaio/Develop/ecos/gnutools/arm-eabi/bin/../lib/gcc/arm-eabi/4.3.2/libgcc.a(_udivsi3.o)
 .ARM.attributes
                0x00000c32       0x1e /home/psampaio/Develop/ecos/gnutools/arm-eabi/bin/../lib/gcc/arm-eabi/4.3.2/libgcc.a(_divsi3.o)
 .ARM.attributes
                0x00000c50       0x1e /home/psampaio/Develop/ecos/gnutools/arm-eabi/bin/../lib/gcc/arm-eabi/4.3.2/libgcc.a(_dvmd_tls.o)
 .ARM.attributes
                0x00000c6e       0x1e /home/psampaio/Develop/ecos/gnutools/arm-eabi/bin/../lib/gcc/arm-eabi/4.3.2/libgcc.a(_addsubdf3.o)
 .ARM.attributes
                0x00000c8c       0x1e /home/psampaio/Develop/ecos/gnutools/arm-eabi/bin/../lib/gcc/arm-eabi/4.3.2/libgcc.a(_muldivdf3.o)
 .ARM.attributes
                0x00000caa       0x1e /home/psampaio/Develop/ecos/gnutools/arm-eabi/bin/../lib/gcc/arm-eabi/4.3.2/libgcc.a(_cmpdf2.o)
 .ARM.attributes
                0x00000cc8       0x1e /home/psampaio/Develop/ecos/gnutools/arm-eabi/bin/../lib/gcc/arm-eabi/4.3.2/libgcc.a(_unorddf2.o)
 .ARM.attributes
                0x00000ce6       0x1e /home/psampaio/Develop/ecos/gnutools/arm-eabi/bin/../lib/gcc/arm-eabi/4.3.2/libgcc.a(_fixdfsi.o)
 .ARM.attributes
                0x00000d04       0x1e /home/psampaio/Develop/ecos/gnutools/arm-eabi/bin/../lib/gcc/arm-eabi/4.3.2/libgcc.a(_truncdfsf2.o)
 .ARM.attributes
                0x00000d22       0x1e /home/psampaio/Develop/ecos/gnutools/arm-eabi/bin/../lib/gcc/arm-eabi/4.3.2/libgcc.a(_aeabi_uldivmod.o)
 .ARM.attributes
                0x00000d40       0x2e /home/psampaio/Develop/ecos/gnutools/arm-eabi/bin/../lib/gcc/arm-eabi/4.3.2/libgcc.a(bpabi.o)
 .ARM.attributes
                0x00000d6e       0x2e /home/psampaio/Develop/ecos/gnutools/arm-eabi/bin/../lib/gcc/arm-eabi/4.3.2/libgcc.a(_divdi3.o)
 .ARM.attributes
                0x00000d9c       0x2e /home/psampaio/Develop/ecos/gnutools/arm-eabi/bin/../lib/gcc/arm-eabi/4.3.2/libgcc.a(_udivdi3.o)
 .ARM.attributes
                0x00000dca       0x2c /home/psampaio/Develop/ecos/gnutools/arm-eabi/bin/../lib/gcc/arm-eabi/4.3.2/libgcc.a(_clz.o)

.debug_ranges   0x00000000     0x4d50
 .debug_ranges  0x00000000       0x20 ../lpc2106_install/lib/vectors.o
 .debug_ranges  0x00000020      0x118 ../lpc2106_install/lib/extras.o
 .debug_ranges  0x00000138      0x278 ../lpc2106_install/lib/libtarget.a(hal_common_hal_if.o)
 .debug_ranges  0x000003b0       0x28 ../lpc2106_install/lib/libtarget.a(hal_common_hal_misc.o)
 .debug_ranges  0x000003d8       0xb8 ../lpc2106_install/lib/libtarget.a(io_common_iosys.o)
 .debug_ranges  0x00000490       0x18 ../lpc2106_install/lib/libtarget.a(infra_startup.o)
 .debug_ranges  0x000004a8       0x18 ../lpc2106_install/lib/libtarget.a(infra_prestart.o)
 .debug_ranges  0x000004c0       0x18 ../lpc2106_install/lib/libtarget.a(infra_pkgstart.o)
 .debug_ranges  0x000004d8       0x18 ../lpc2106_install/lib/libtarget.a(infra_userstart.o)
 .debug_ranges  0x000004f0      0x188 ../lpc2106_install/lib/libtarget.a(infra_diag.o)
 .debug_ranges  0x00000678      0x6a8 ../lpc2106_install/lib/libtarget.a(kernel_kapi.o)
 .debug_ranges  0x00000d20      0x620 ../lpc2106_install/lib/libtarget.a(kernel_thread.o)
 .debug_ranges  0x00001340       0x50 ../lpc2106_install/lib/libtarget.a(kernel_except.o)
 .debug_ranges  0x00001390      0x148 ../lpc2106_install/lib/libtarget.a(kernel_intr.o)
 .debug_ranges  0x000014d8      0x338 ../lpc2106_install/lib/libtarget.a(kernel_mlqueue.o)
 .debug_ranges  0x00001810      0x2a0 ../lpc2106_install/lib/libtarget.a(kernel_sched.o)
 .debug_ranges  0x00001ab0      0x268 ../lpc2106_install/lib/libtarget.a(kernel_cnt_sem.o)
 .debug_ranges  0x00001d18      0x430 ../lpc2106_install/lib/libtarget.a(kernel_flag.o)
 .debug_ranges  0x00002148      0x6f0 ../lpc2106_install/lib/libtarget.a(kernel_mbox.o)
 .debug_ranges  0x00002838      0x700 ../lpc2106_install/lib/libtarget.a(kernel_mutex.o)
 .debug_ranges  0x00002f38       0x28 ../lpc2106_install/lib/libtarget.a(language_c_libc_startup_mainthread.o)
 .debug_ranges  0x00002f60       0x48 ../lpc2106_install/lib/libtarget.a(language_c_libc_stdio_stdioinlines.o)
 .debug_ranges  0x00002fa8       0x40 ../lpc2106_install/lib/libtarget.a(language_c_libc_stdio_stdout.o)
 .debug_ranges  0x00002fe8      0x3d8 ../lpc2106_install/lib/libtarget.a(language_c_libc_stdio_stream.o)
 .debug_ranges  0x000033c0       0x18 ../lpc2106_install/lib/libtarget.a(language_c_libc_stdio_streambuf.o)
 .debug_ranges  0x000033d8       0x88 ../lpc2106_install/lib/libtarget.a(language_c_libc_stdio_vsnprintf.o)
 .debug_ranges  0x00003460      0x3f0 ../lpc2106_install/lib/libtarget.a(language_c_libc_stdio_vfscanf.o)
 .debug_ranges  0x00003850       0x18 ../lpc2106_install/lib/libtarget.a(language_c_libc_stdio_fprintf.o)
 .debug_ranges  0x00003868       0x38 ../lpc2106_install/lib/libtarget.a(language_c_libc_stdio_fputc.o)
 .debug_ranges  0x000038a0       0x30 ../lpc2106_install/lib/libtarget.a(language_c_libc_stdio_fputs.o)
 .debug_ranges  0x000038d0      0x3c0 ../lpc2106_install/lib/libtarget.a(language_c_libc_stdio_vfnprintf.o)
 .debug_ranges  0x00003c90       0x90 ../lpc2106_install/lib/libtarget.a(language_c_libc_stdlib_strtod.o)
 .debug_ranges  0x00003d20       0x30 ../lpc2106_install/lib/libtarget.a(language_c_libc_stdlib_strtol.o)
 .debug_ranges  0x00003d50       0x30 ../lpc2106_install/lib/libtarget.a(language_c_libc_stdlib_strtoul.o)
 .debug_ranges  0x00003d80       0x30 ../lpc2106_install/lib/libtarget.a(language_c_libc_stdlib_strtoll.o)
 .debug_ranges  0x00003db0       0x30 ../lpc2106_install/lib/libtarget.a(language_c_libc_stdlib_strtoull.o)
 .debug_ranges  0x00003de0       0x18 ../lpc2106_install/lib/libtarget.a(language_c_libc_string_memchr.o)
 .debug_ranges  0x00003df8       0x18 ../lpc2106_install/lib/libtarget.a(language_c_libc_string_strlen.o)
 .debug_ranges  0x00003e10       0x18 ../lpc2106_install/lib/libtarget.a(language_c_libm_s_modf.o)
 .debug_ranges  0x00003e28       0x18 ../lpc2106_install/lib/libtarget.a(error_strerror.o)
 .debug_ranges  0x00003e40       0x18 ../lpc2106_install/lib/libtarget.a(error_errno.o)
 .debug_ranges  0x00003e58       0x40 ../lpc2106_install/lib/libtarget.a(hal_arm_arch_hal_misc.o)
 .debug_ranges  0x00003e98       0xc8 ../lpc2106_install/lib/libtarget.a(hal_arm_lpc2xxx_var_lpc2xxx_misc.o)
 .debug_ranges  0x00003f60       0x20 ../lpc2106_install/lib/libtarget.a(hal_arm_lpc2xxx_p2106_p2106_misc.o)
 .debug_ranges  0x00003f80       0x18 ../lpc2106_install/lib/libtarget.a(infra_memcpy.o)
 .debug_ranges  0x00003f98       0x20 ../lpc2106_install/lib/libtarget.a(infra_delete.o)
 .debug_ranges  0x00003fb8      0x690 ../lpc2106_install/lib/libtarget.a(kernel_clock.o)
 .debug_ranges  0x00004648      0x228 ../lpc2106_install/lib/libtarget.a(services_memalloc_common_malloc.o)
 .debug_ranges  0x00004870       0xa0 ../lpc2106_install/lib/libtarget.a(services_memalloc_common_heaps.o)
 .debug_ranges  0x00004910       0x18 ../lpc2106_install/lib/libtarget.a(language_c_libc_startup_invokemain.o)
 .debug_ranges  0x00004928       0x50 ../lpc2106_install/lib/libtarget.a(language_c_libc_stdio_fflush.o)
 .debug_ranges  0x00004978       0x58 ../lpc2106_install/lib/libtarget.a(language_c_libc_stdio_setvbuf.o)
 .debug_ranges  0x000049d0       0x40 ../lpc2106_install/lib/libtarget.a(language_c_libc_stdio_stderr.o)
 .debug_ranges  0x00004a10       0x40 ../lpc2106_install/lib/libtarget.a(language_c_libc_stdio_stdin.o)
 .debug_ranges  0x00004a50       0x28 ../lpc2106_install/lib/libtarget.a(language_c_libc_stdio_stdiofiles.o)
 .debug_ranges  0x00004a78       0x18 ../lpc2106_install/lib/libtarget.a(language_c_libc_stdio_stdiosupp.o)
 .debug_ranges  0x00004a90       0x48 ../lpc2106_install/lib/libtarget.a(language_c_libc_stdio_ungetc.o)
 .debug_ranges  0x00004ad8      0x138 ../lpc2106_install/lib/libtarget.a(hal_arm_lpc2xxx_var_hal_diag.o)
 .debug_ranges  0x00004c10       0x18 ../lpc2106_install/lib/libtarget.a(infra_memset.o)
 .debug_ranges  0x00004c28       0xc0 ../lpc2106_install/lib/libtarget.a(services_memalloc_common_dlmalloc.o)
 .debug_ranges  0x00004ce8       0x18 ../lpc2106_install/lib/libtarget.a(language_c_libc_startup_exit.o)
 .debug_ranges  0x00004d00       0x18 ../lpc2106_install/lib/libtarget.a(language_c_libc_string_memmove.o)
 .debug_ranges  0x00004d18       0x18 ../lpc2106_install/lib/libtarget.a(language_c_libc_startup__exit.o)
 .debug_ranges  0x00004d30       0x20 ../lpc2106_install/lib/libtarget.a(language_c_libc_startup_atexit.o)

.comment        0x00000000      0xd2f
 .comment       0x00000000       0x2d /tmp/cckwxeNr.o
 .comment       0x0000002d      0x10e ../lpc2106_install/lib/extras.o
 .comment       0x0000013b       0x2d ../lpc2106_install/lib/libtarget.a(hal_common_hal_if.o)
 .comment       0x00000168       0x2d ../lpc2106_install/lib/libtarget.a(hal_common_hal_misc.o)
 .comment       0x00000195       0x2d ../lpc2106_install/lib/libtarget.a(io_common_iosys.o)
 .comment       0x000001c2       0x2d ../lpc2106_install/lib/libtarget.a(infra_startup.o)
 .comment       0x000001ef       0x2d ../lpc2106_install/lib/libtarget.a(infra_prestart.o)
 .comment       0x0000021c       0x2d ../lpc2106_install/lib/libtarget.a(infra_pkgstart.o)
 .comment       0x00000249       0x2d ../lpc2106_install/lib/libtarget.a(infra_userstart.o)
 .comment       0x00000276       0x2d ../lpc2106_install/lib/libtarget.a(infra_diag.o)
 .comment       0x000002a3       0x2d ../lpc2106_install/lib/libtarget.a(kernel_kapi.o)
 .comment       0x000002d0       0x2d ../lpc2106_install/lib/libtarget.a(kernel_thread.o)
 .comment       0x000002fd       0x2d ../lpc2106_install/lib/libtarget.a(kernel_except.o)
 .comment       0x0000032a       0x2d ../lpc2106_install/lib/libtarget.a(kernel_intr.o)
 .comment       0x00000357       0x2d ../lpc2106_install/lib/libtarget.a(kernel_mlqueue.o)
 .comment       0x00000384       0x2d ../lpc2106_install/lib/libtarget.a(kernel_sched.o)
 .comment       0x000003b1       0x2d ../lpc2106_install/lib/libtarget.a(kernel_cnt_sem.o)
 .comment       0x000003de       0x2d ../lpc2106_install/lib/libtarget.a(kernel_flag.o)
 .comment       0x0000040b       0x2d ../lpc2106_install/lib/libtarget.a(kernel_mbox.o)
 .comment       0x00000438       0x2d ../lpc2106_install/lib/libtarget.a(kernel_mutex.o)
 .comment       0x00000465       0x2d ../lpc2106_install/lib/libtarget.a(language_c_libc_startup_mainthread.o)
 .comment       0x00000492       0x2d ../lpc2106_install/lib/libtarget.a(language_c_libc_stdio_stdioinlines.o)
 .comment       0x000004bf       0x2d ../lpc2106_install/lib/libtarget.a(language_c_libc_stdio_stdout.o)
 .comment       0x000004ec       0x2d ../lpc2106_install/lib/libtarget.a(language_c_libc_stdio_stream.o)
 .comment       0x00000519       0x2d ../lpc2106_install/lib/libtarget.a(language_c_libc_stdio_streambuf.o)
 .comment       0x00000546       0x2d ../lpc2106_install/lib/libtarget.a(language_c_libc_stdio_vsnprintf.o)
 .comment       0x00000573       0x2d ../lpc2106_install/lib/libtarget.a(language_c_libc_stdio_vfscanf.o)
 .comment       0x000005a0       0x2d ../lpc2106_install/lib/libtarget.a(language_c_libc_stdio_fprintf.o)
 .comment       0x000005cd       0x2d ../lpc2106_install/lib/libtarget.a(language_c_libc_stdio_fputc.o)
 .comment       0x000005fa       0x2d ../lpc2106_install/lib/libtarget.a(language_c_libc_stdio_fputs.o)
 .comment       0x00000627       0x2d ../lpc2106_install/lib/libtarget.a(language_c_libc_stdio_vfnprintf.o)
 .comment       0x00000654       0x2d ../lpc2106_install/lib/libtarget.a(language_c_libc_stdlib_strtod.o)
 .comment       0x00000681       0x2d ../lpc2106_install/lib/libtarget.a(language_c_libc_stdlib_strtol.o)
 .comment       0x000006ae       0x2d ../lpc2106_install/lib/libtarget.a(language_c_libc_stdlib_strtoul.o)
 .comment       0x000006db       0x2d ../lpc2106_install/lib/libtarget.a(language_c_libc_stdlib_strtoll.o)
 .comment       0x00000708       0x2d ../lpc2106_install/lib/libtarget.a(language_c_libc_stdlib_strtoull.o)
 .comment       0x00000735       0x2d ../lpc2106_install/lib/libtarget.a(language_c_libc_string_memchr.o)
 .comment       0x00000762       0x2d ../lpc2106_install/lib/libtarget.a(language_c_libc_string_strlen.o)
 .comment       0x0000078f       0x2d ../lpc2106_install/lib/libtarget.a(language_c_libc_string_strsuppt.o)
 .comment       0x000007bc       0x2d ../lpc2106_install/lib/libtarget.a(language_c_libm_infconst.o)
 .comment       0x000007e9       0x2d ../lpc2106_install/lib/libtarget.a(language_c_libm_s_modf.o)
 .comment       0x00000816       0x2d ../lpc2106_install/lib/libtarget.a(error_strerror.o)
 .comment       0x00000843       0x2d ../lpc2106_install/lib/libtarget.a(error_errno.o)
 .comment       0x00000870       0x2d ../lpc2106_install/lib/libtarget.a(hal_arm_arch_hal_misc.o)
 .comment       0x0000089d       0x2d ../lpc2106_install/lib/libtarget.a(hal_arm_lpc2xxx_var_lpc2xxx_misc.o)
 .comment       0x000008ca       0x2d ../lpc2106_install/lib/libtarget.a(hal_arm_lpc2xxx_p2106_p2106_misc.o)
 .comment       0x000008f7       0x2d ../lpc2106_install/lib/libtarget.a(infra_memcpy.o)
 .comment       0x00000924       0x2d ../lpc2106_install/lib/libtarget.a(infra_delete.o)
 .comment       0x00000951       0x2d ../lpc2106_install/lib/libtarget.a(kernel_clock.o)
 .comment       0x0000097e       0x2d ../lpc2106_install/lib/libtarget.a(services_memalloc_common_malloc.o)
 .comment       0x000009ab       0x2d ../lpc2106_install/lib/libtarget.a(services_memalloc_common_heaps.o)
 .comment       0x000009d8       0x2d ../lpc2106_install/lib/libtarget.a(language_c_libc_startup_invokemain.o)
 .comment       0x00000a05       0x2d ../lpc2106_install/lib/libtarget.a(language_c_libc_stdio_fflush.o)
 .comment       0x00000a32       0x2d ../lpc2106_install/lib/libtarget.a(language_c_libc_stdio_setvbuf.o)
 .comment       0x00000a5f       0x2d ../lpc2106_install/lib/libtarget.a(language_c_libc_stdio_stderr.o)
 .comment       0x00000a8c       0x2d ../lpc2106_install/lib/libtarget.a(language_c_libc_stdio_stdin.o)
 .comment       0x00000ab9       0x2d ../lpc2106_install/lib/libtarget.a(language_c_libc_stdio_stdiofiles.o)
 .comment       0x00000ae6       0x2d ../lpc2106_install/lib/libtarget.a(language_c_libc_stdio_stdiosupp.o)
 .comment       0x00000b13       0x2d ../lpc2106_install/lib/libtarget.a(language_c_libc_stdio_ungetc.o)
 .comment       0x00000b40       0x2d ../lpc2106_install/lib/libtarget.a(hal_arm_lpc2xxx_var_hal_diag.o)
 .comment       0x00000b6d       0x2d ../lpc2106_install/lib/libtarget.a(infra_memset.o)
 .comment       0x00000b9a       0x2d ../lpc2106_install/lib/libtarget.a(services_memalloc_common_dlmalloc.o)
 .comment       0x00000bc7       0x2d ../lpc2106_install/lib/libtarget.a(language_c_libc_startup_exit.o)
 .comment       0x00000bf4       0x2d ../lpc2106_install/lib/libtarget.a(language_c_libc_string_memmove.o)
 .comment       0x00000c21       0x2d ../lpc2106_install/lib/libtarget.a(language_c_libc_startup__exit.o)
 .comment       0x00000c4e       0x2d ../lpc2106_install/lib/libtarget.a(language_c_libc_startup_atexit.o)
 .comment       0x00000c7b       0x2d /home/psampaio/Develop/ecos/gnutools/arm-eabi/bin/../lib/gcc/arm-eabi/4.3.2/libgcc.a(bpabi.o)
 .comment       0x00000ca8       0x2d /home/psampaio/Develop/ecos/gnutools/arm-eabi/bin/../lib/gcc/arm-eabi/4.3.2/libgcc.a(_divdi3.o)
 .comment       0x00000cd5       0x2d /home/psampaio/Develop/ecos/gnutools/arm-eabi/bin/../lib/gcc/arm-eabi/4.3.2/libgcc.a(_udivdi3.o)
 .comment       0x00000d02       0x2d /home/psampaio/Develop/ecos/gnutools/arm-eabi/bin/../lib/gcc/arm-eabi/4.3.2/libgcc.a(_clz.o)
